Archive member included to satisfy reference by file (symbol)

C:/devkitPro/devkitARM/bin/../lib/gcc/arm-none-eabi/14.2.0/thumb\libgcc.a(_call_via_rX.o)
                              mm_main_gba.o (_call_via_r1)
C:/devkitPro/devkitARM/bin/../lib/gcc/arm-none-eabi/14.2.0/thumb\libgcc.a(_sync_none.o)
                              (__sync_synchronize_none)

Discarded input sections

 .text          0x00000000        0x0 C:/devkitPro/devkitARM/bin/../lib/gcc/arm-none-eabi/14.2.0/../../../../arm-none-eabi/lib/thumb/gba_crt0.o
 .data          0x00000000        0x0 C:/devkitPro/devkitARM/bin/../lib/gcc/arm-none-eabi/14.2.0/../../../../arm-none-eabi/lib/thumb/gba_crt0.o
 .bss           0x00000000        0x0 C:/devkitPro/devkitARM/bin/../lib/gcc/arm-none-eabi/14.2.0/../../../../arm-none-eabi/lib/thumb/gba_crt0.o
 .text          0x00000000        0x0 C:/devkitPro/devkitARM/bin/../lib/gcc/arm-none-eabi/14.2.0/thumb/crti.o
 .data          0x00000000        0x0 C:/devkitPro/devkitARM/bin/../lib/gcc/arm-none-eabi/14.2.0/thumb/crti.o
 .bss           0x00000000        0x0 C:/devkitPro/devkitARM/bin/../lib/gcc/arm-none-eabi/14.2.0/thumb/crti.o
 .text          0x00000000        0x0 C:/devkitPro/devkitARM/bin/../lib/gcc/arm-none-eabi/14.2.0/thumb/crtbegin.o
 .data          0x00000000        0x0 C:/devkitPro/devkitARM/bin/../lib/gcc/arm-none-eabi/14.2.0/thumb/crtbegin.o
 .bss           0x00000000        0x0 C:/devkitPro/devkitARM/bin/../lib/gcc/arm-none-eabi/14.2.0/thumb/crtbegin.o
 .rodata.all_implied_fbits
                0x00000000       0x24 C:/devkitPro/devkitARM/bin/../lib/gcc/arm-none-eabi/14.2.0/thumb/crtbegin.o
 .text          0x00000000        0x0 _bn_audio_soundbank.bin.o
 .data          0x00000000        0x0 _bn_audio_soundbank.bin.o
 .bss           0x00000000        0x0 _bn_audio_soundbank.bin.o
 .text          0x00000000        0x0 big_font_bn_gfx.o
 .data          0x00000000        0x0 big_font_bn_gfx.o
 .bss           0x00000000        0x0 big_font_bn_gfx.o
 .text          0x00000000        0x0 boss_intro_bn_gfx.o
 .data          0x00000000        0x0 boss_intro_bn_gfx.o
 .bss           0x00000000        0x0 boss_intro_bn_gfx.o
 .text          0x00000000        0x0 brightness_bn_gfx.o
 .data          0x00000000        0x0 brightness_bn_gfx.o
 .bss           0x00000000        0x0 brightness_bn_gfx.o
 .text          0x00000000        0x0 butano_background_bn_gfx.o
 .data          0x00000000        0x0 butano_background_bn_gfx.o
 .bss           0x00000000        0x0 butano_background_bn_gfx.o
 .text          0x00000000        0x0 butano_big_silhouette_bn_gfx.o
 .data          0x00000000        0x0 butano_big_silhouette_bn_gfx.o
 .bss           0x00000000        0x0 butano_big_silhouette_bn_gfx.o
 .text          0x00000000        0x0 butano_big_sprite_bn_gfx.o
 .data          0x00000000        0x0 butano_big_sprite_bn_gfx.o
 .bss           0x00000000        0x0 butano_big_sprite_bn_gfx.o
 .text          0x00000000        0x0 butano_fire_bn_gfx.o
 .data          0x00000000        0x0 butano_fire_bn_gfx.o
 .bss           0x00000000        0x0 butano_fire_bn_gfx.o
 .text          0x00000000        0x0 butano_flash_palette_bn_gfx.o
 .data          0x00000000        0x0 butano_flash_palette_bn_gfx.o
 .bss           0x00000000        0x0 butano_flash_palette_bn_gfx.o
 .text          0x00000000        0x0 butano_font_bn_gfx.o
 .data          0x00000000        0x0 butano_font_bn_gfx.o
 .bss           0x00000000        0x0 butano_font_bn_gfx.o
 .text          0x00000000        0x0 butano_huge_bn_gfx.o
 .data          0x00000000        0x0 butano_huge_bn_gfx.o
 .bss           0x00000000        0x0 butano_huge_bn_gfx.o
 .text          0x00000000        0x0 clouds_bn_gfx.o
 .data          0x00000000        0x0 clouds_bn_gfx.o
 .bss           0x00000000        0x0 clouds_bn_gfx.o
 .text          0x00000000        0x0 enemy_bullets_bn_gfx.o
 .data          0x00000000        0x0 enemy_bullets_bn_gfx.o
 .bss           0x00000000        0x0 enemy_bullets_bn_gfx.o
 .text          0x00000000        0x0 enemy_explosion_bn_gfx.o
 .data          0x00000000        0x0 enemy_explosion_bn_gfx.o
 .bss           0x00000000        0x0 enemy_explosion_bn_gfx.o
 .text          0x00000000        0x0 experience_bar_bn_gfx.o
 .data          0x00000000        0x0 experience_bar_bn_gfx.o
 .bss           0x00000000        0x0 experience_bar_bn_gfx.o
 .text          0x00000000        0x0 experience_frame_back_bn_gfx.o
 .data          0x00000000        0x0 experience_frame_back_bn_gfx.o
 .bss           0x00000000        0x0 experience_frame_back_bn_gfx.o
 .text          0x00000000        0x0 experience_frame_front_bn_gfx.o
 .data          0x00000000        0x0 experience_frame_front_bn_gfx.o
 .bss           0x00000000        0x0 experience_frame_front_bn_gfx.o
 .text          0x00000000        0x0 fighter_font_bn_gfx.o
 .data          0x00000000        0x0 fighter_font_bn_gfx.o
 .bss           0x00000000        0x0 fighter_font_bn_gfx.o
 .text          0x00000000        0x0 flash_palette_bn_gfx.o
 .data          0x00000000        0x0 flash_palette_bn_gfx.o
 .bss           0x00000000        0x0 flash_palette_bn_gfx.o
 .text          0x00000000        0x0 gem_bn_gfx.o
 .data          0x00000000        0x0 gem_bn_gfx.o
 .bss           0x00000000        0x0 gem_bn_gfx.o
 .text          0x00000000        0x0 gigabat_bn_gfx.o
 .data          0x00000000        0x0 gigabat_bn_gfx.o
 .bss           0x00000000        0x0 gigabat_bn_gfx.o
 .text          0x00000000        0x0 gigabat_shadow_bn_gfx.o
 .data          0x00000000        0x0 gigabat_shadow_bn_gfx.o
 .bss           0x00000000        0x0 gigabat_shadow_bn_gfx.o
 .text          0x00000000        0x0 hero_body_flying_bn_gfx.o
 .data          0x00000000        0x0 hero_body_flying_bn_gfx.o
 .bss           0x00000000        0x0 hero_body_flying_bn_gfx.o
 .text          0x00000000        0x0 hero_body_walking_bn_gfx.o
 .data          0x00000000        0x0 hero_body_walking_bn_gfx.o
 .bss           0x00000000        0x0 hero_body_walking_bn_gfx.o
 .text          0x00000000        0x0 hero_bomb_bn_gfx.o
 .data          0x00000000        0x0 hero_bomb_bn_gfx.o
 .bss           0x00000000        0x0 hero_bomb_bn_gfx.o
 .text          0x00000000        0x0 hero_bomb_icon_bn_gfx.o
 .data          0x00000000        0x0 hero_bomb_icon_bn_gfx.o
 .bss           0x00000000        0x0 hero_bomb_icon_bn_gfx.o
 .text          0x00000000        0x0 hero_bomb_mini_bn_gfx.o
 .data          0x00000000        0x0 hero_bomb_mini_bn_gfx.o
 .bss           0x00000000        0x0 hero_bomb_mini_bn_gfx.o
 .text          0x00000000        0x0 hero_bullets_bn_gfx.o
 .data          0x00000000        0x0 hero_bullets_bn_gfx.o
 .bss           0x00000000        0x0 hero_bullets_bn_gfx.o
 .text          0x00000000        0x0 hero_death_bn_gfx.o
 .data          0x00000000        0x0 hero_death_bn_gfx.o
 .bss           0x00000000        0x0 hero_death_bn_gfx.o
 .text          0x00000000        0x0 hero_head_bn_gfx.o
 .data          0x00000000        0x0 hero_head_bn_gfx.o
 .bss           0x00000000        0x0 hero_head_bn_gfx.o
 .text          0x00000000        0x0 hero_shield_bn_gfx.o
 .data          0x00000000        0x0 hero_shield_bn_gfx.o
 .bss           0x00000000        0x0 hero_shield_bn_gfx.o
 .text          0x00000000        0x0 hero_weapon_big_2_bn_gfx.o
 .data          0x00000000        0x0 hero_weapon_big_2_bn_gfx.o
 .bss           0x00000000        0x0 hero_weapon_big_2_bn_gfx.o
 .text          0x00000000        0x0 hero_weapon_big_3_bn_gfx.o
 .data          0x00000000        0x0 hero_weapon_big_3_bn_gfx.o
 .bss           0x00000000        0x0 hero_weapon_big_3_bn_gfx.o
 .text          0x00000000        0x0 hero_weapon_big_4_bn_gfx.o
 .data          0x00000000        0x0 hero_weapon_big_4_bn_gfx.o
 .bss           0x00000000        0x0 hero_weapon_big_4_bn_gfx.o
 .text          0x00000000        0x0 hero_weapon_big_5_bn_gfx.o
 .data          0x00000000        0x0 hero_weapon_big_5_bn_gfx.o
 .bss           0x00000000        0x0 hero_weapon_big_5_bn_gfx.o
 .text          0x00000000        0x0 hero_weapon_big_6_bn_gfx.o
 .data          0x00000000        0x0 hero_weapon_big_6_bn_gfx.o
 .bss           0x00000000        0x0 hero_weapon_big_6_bn_gfx.o
 .text          0x00000000        0x0 hero_weapon_big_7_bn_gfx.o
 .data          0x00000000        0x0 hero_weapon_big_7_bn_gfx.o
 .bss           0x00000000        0x0 hero_weapon_big_7_bn_gfx.o
 .text          0x00000000        0x0 hero_weapon_big_8_bn_gfx.o
 .data          0x00000000        0x0 hero_weapon_big_8_bn_gfx.o
 .bss           0x00000000        0x0 hero_weapon_big_8_bn_gfx.o
 .text          0x00000000        0x0 hero_weapon_big_9_bn_gfx.o
 .data          0x00000000        0x0 hero_weapon_big_9_bn_gfx.o
 .bss           0x00000000        0x0 hero_weapon_big_9_bn_gfx.o
 .text          0x00000000        0x0 hero_weapons_bn_gfx.o
 .data          0x00000000        0x0 hero_weapons_bn_gfx.o
 .bss           0x00000000        0x0 hero_weapons_bn_gfx.o
 .text          0x00000000        0x0 mini_explosion_bn_gfx.o
 .data          0x00000000        0x0 mini_explosion_bn_gfx.o
 .bss           0x00000000        0x0 mini_explosion_bn_gfx.o
 .text          0x00000000        0x0 mini_explosion_2_bn_gfx.o
 .data          0x00000000        0x0 mini_explosion_2_bn_gfx.o
 .bss           0x00000000        0x0 mini_explosion_2_bn_gfx.o
 .text          0x00000000        0x0 mountain_clouds_bn_gfx.o
 .data          0x00000000        0x0 mountain_clouds_bn_gfx.o
 .bss           0x00000000        0x0 mountain_clouds_bn_gfx.o
 .text          0x00000000        0x0 object_messages_bn_gfx.o
 .data          0x00000000        0x0 object_messages_bn_gfx.o
 .bss           0x00000000        0x0 object_messages_bn_gfx.o
 .text          0x00000000        0x0 pause_bn_gfx.o
 .data          0x00000000        0x0 pause_bn_gfx.o
 .bss           0x00000000        0x0 pause_bn_gfx.o
 .text          0x00000000        0x0 small_font_bn_gfx.o
 .data          0x00000000        0x0 small_font_bn_gfx.o
 .bss           0x00000000        0x0 small_font_bn_gfx.o
 .text          0x00000000        0x0 stage_1_bn_gfx.o
 .data          0x00000000        0x0 stage_1_bn_gfx.o
 .bss           0x00000000        0x0 stage_1_bn_gfx.o
 .text          0x00000000        0x0 stage_1_animals_bn_gfx.o
 .data          0x00000000        0x0 stage_1_animals_bn_gfx.o
 .bss           0x00000000        0x0 stage_1_animals_bn_gfx.o
 .text          0x00000000        0x0 stage_1_characters_1_bn_gfx.o
 .data          0x00000000        0x0 stage_1_characters_1_bn_gfx.o
 .bss           0x00000000        0x0 stage_1_characters_1_bn_gfx.o
 .text          0x00000000        0x0 stage_1_characters_1_team_bn_gfx.o
 .data          0x00000000        0x0 stage_1_characters_1_team_bn_gfx.o
 .bss           0x00000000        0x0 stage_1_characters_1_team_bn_gfx.o
 .text          0x00000000        0x0 stage_1_characters_2_bn_gfx.o
 .data          0x00000000        0x0 stage_1_characters_2_bn_gfx.o
 .bss           0x00000000        0x0 stage_1_characters_2_bn_gfx.o
 .text          0x00000000        0x0 stage_1_intro_bn_gfx.o
 .data          0x00000000        0x0 stage_1_intro_bn_gfx.o
 .bss           0x00000000        0x0 stage_1_intro_bn_gfx.o
 .text          0x00000000        0x0 stage_1_intro_alt_bn_gfx.o
 .data          0x00000000        0x0 stage_1_intro_alt_bn_gfx.o
 .bss           0x00000000        0x0 stage_1_intro_alt_bn_gfx.o
 .text          0x00000000        0x0 stage_1_monsters_1_bn_gfx.o
 .data          0x00000000        0x0 stage_1_monsters_1_bn_gfx.o
 .bss           0x00000000        0x0 stage_1_monsters_1_bn_gfx.o
 .text          0x00000000        0x0 stage_1_monsters_2_bn_gfx.o
 .data          0x00000000        0x0 stage_1_monsters_2_bn_gfx.o
 .bss           0x00000000        0x0 stage_1_monsters_2_bn_gfx.o
 .text          0x00000000        0x0 stage_2_bn_gfx.o
 .data          0x00000000        0x0 stage_2_bn_gfx.o
 .bss           0x00000000        0x0 stage_2_bn_gfx.o
 .text          0x00000000        0x0 stage_2_characters_1_bn_gfx.o
 .data          0x00000000        0x0 stage_2_characters_1_bn_gfx.o
 .bss           0x00000000        0x0 stage_2_characters_1_bn_gfx.o
 .text          0x00000000        0x0 stage_2_characters_2_bn_gfx.o
 .data          0x00000000        0x0 stage_2_characters_2_bn_gfx.o
 .bss           0x00000000        0x0 stage_2_characters_2_bn_gfx.o
 .text          0x00000000        0x0 stage_2_intro_bn_gfx.o
 .data          0x00000000        0x0 stage_2_intro_bn_gfx.o
 .bss           0x00000000        0x0 stage_2_intro_bn_gfx.o
 .text          0x00000000        0x0 stage_2_intro_alt_bn_gfx.o
 .data          0x00000000        0x0 stage_2_intro_alt_bn_gfx.o
 .bss           0x00000000        0x0 stage_2_intro_alt_bn_gfx.o
 .text          0x00000000        0x0 stage_2_monsters_1_bn_gfx.o
 .data          0x00000000        0x0 stage_2_monsters_1_bn_gfx.o
 .bss           0x00000000        0x0 stage_2_monsters_1_bn_gfx.o
 .text          0x00000000        0x0 stage_2_monsters_2_bn_gfx.o
 .data          0x00000000        0x0 stage_2_monsters_2_bn_gfx.o
 .bss           0x00000000        0x0 stage_2_monsters_2_bn_gfx.o
 .text          0x00000000        0x0 stage_2_robot_bn_gfx.o
 .data          0x00000000        0x0 stage_2_robot_bn_gfx.o
 .bss           0x00000000        0x0 stage_2_robot_bn_gfx.o
 .text          0x00000000        0x0 stage_3_bn_gfx.o
 .data          0x00000000        0x0 stage_3_bn_gfx.o
 .bss           0x00000000        0x0 stage_3_bn_gfx.o
 .text          0x00000000        0x0 stage_3_blonde_bn_gfx.o
 .data          0x00000000        0x0 stage_3_blonde_bn_gfx.o
 .bss           0x00000000        0x0 stage_3_blonde_bn_gfx.o
 .text          0x00000000        0x0 stage_3_characters_1_bn_gfx.o
 .data          0x00000000        0x0 stage_3_characters_1_bn_gfx.o
 .bss           0x00000000        0x0 stage_3_characters_1_bn_gfx.o
 .text          0x00000000        0x0 stage_3_characters_2_bn_gfx.o
 .data          0x00000000        0x0 stage_3_characters_2_bn_gfx.o
 .bss           0x00000000        0x0 stage_3_characters_2_bn_gfx.o
 .text          0x00000000        0x0 stage_3_dragon_man_bn_gfx.o
 .data          0x00000000        0x0 stage_3_dragon_man_bn_gfx.o
 .bss           0x00000000        0x0 stage_3_dragon_man_bn_gfx.o
 .text          0x00000000        0x0 stage_3_intro_bn_gfx.o
 .data          0x00000000        0x0 stage_3_intro_bn_gfx.o
 .bss           0x00000000        0x0 stage_3_intro_bn_gfx.o
 .text          0x00000000        0x0 stage_3_intro_alt_bn_gfx.o
 .data          0x00000000        0x0 stage_3_intro_alt_bn_gfx.o
 .bss           0x00000000        0x0 stage_3_intro_alt_bn_gfx.o
 .text          0x00000000        0x0 stage_3_monsters_1_bn_gfx.o
 .data          0x00000000        0x0 stage_3_monsters_1_bn_gfx.o
 .bss           0x00000000        0x0 stage_3_monsters_1_bn_gfx.o
 .text          0x00000000        0x0 stage_3_monsters_2_bn_gfx.o
 .data          0x00000000        0x0 stage_3_monsters_2_bn_gfx.o
 .bss           0x00000000        0x0 stage_3_monsters_2_bn_gfx.o
 .text          0x00000000        0x0 stage_4_bn_gfx.o
 .data          0x00000000        0x0 stage_4_bn_gfx.o
 .bss           0x00000000        0x0 stage_4_bn_gfx.o
 .text          0x00000000        0x0 stage_4_brain_bn_gfx.o
 .data          0x00000000        0x0 stage_4_brain_bn_gfx.o
 .bss           0x00000000        0x0 stage_4_brain_bn_gfx.o
 .text          0x00000000        0x0 stage_4_enemies_1_bn_gfx.o
 .data          0x00000000        0x0 stage_4_enemies_1_bn_gfx.o
 .bss           0x00000000        0x0 stage_4_enemies_1_bn_gfx.o
 .text          0x00000000        0x0 stage_4_enemies_2_bn_gfx.o
 .data          0x00000000        0x0 stage_4_enemies_2_bn_gfx.o
 .bss           0x00000000        0x0 stage_4_enemies_2_bn_gfx.o
 .text          0x00000000        0x0 stage_4_enemies_3_1_bn_gfx.o
 .data          0x00000000        0x0 stage_4_enemies_3_1_bn_gfx.o
 .bss           0x00000000        0x0 stage_4_enemies_3_1_bn_gfx.o
 .text          0x00000000        0x0 stage_4_enemies_3_2_bn_gfx.o
 .data          0x00000000        0x0 stage_4_enemies_3_2_bn_gfx.o
 .bss           0x00000000        0x0 stage_4_enemies_3_2_bn_gfx.o
 .text          0x00000000        0x0 stage_4_enemies_4_bn_gfx.o
 .data          0x00000000        0x0 stage_4_enemies_4_bn_gfx.o
 .bss           0x00000000        0x0 stage_4_enemies_4_bn_gfx.o
 .text          0x00000000        0x0 stage_4_intro_bn_gfx.o
 .data          0x00000000        0x0 stage_4_intro_bn_gfx.o
 .bss           0x00000000        0x0 stage_4_intro_bn_gfx.o
 .text          0x00000000        0x0 stage_4_intro_alt_bn_gfx.o
 .data          0x00000000        0x0 stage_4_intro_alt_bn_gfx.o
 .bss           0x00000000        0x0 stage_4_intro_alt_bn_gfx.o
 .text          0x00000000        0x0 stage_4_meteors_big_bn_gfx.o
 .data          0x00000000        0x0 stage_4_meteors_big_bn_gfx.o
 .bss           0x00000000        0x0 stage_4_meteors_big_bn_gfx.o
 .text          0x00000000        0x0 stage_4_meteors_small_bn_gfx.o
 .data          0x00000000        0x0 stage_4_meteors_small_bn_gfx.o
 .bss           0x00000000        0x0 stage_4_meteors_small_bn_gfx.o
 .text          0x00000000        0x0 stage_4_octopus_bn_gfx.o
 .data          0x00000000        0x0 stage_4_octopus_bn_gfx.o
 .bss           0x00000000        0x0 stage_4_octopus_bn_gfx.o
 .text          0x00000000        0x0 stars_bn_gfx.o
 .data          0x00000000        0x0 stars_bn_gfx.o
 .bss           0x00000000        0x0 stars_bn_gfx.o
 .text          0x00000000        0x0 tank_base_bn_gfx.o
 .data          0x00000000        0x0 tank_base_bn_gfx.o
 .bss           0x00000000        0x0 tank_base_bn_gfx.o
 .text          0x00000000        0x0 tank_cannon_bn_gfx.o
 .data          0x00000000        0x0 tank_cannon_bn_gfx.o
 .bss           0x00000000        0x0 tank_cannon_bn_gfx.o
 .text          0x00000000        0x0 tank_extras_bn_gfx.o
 .data          0x00000000        0x0 tank_extras_bn_gfx.o
 .bss           0x00000000        0x0 tank_extras_bn_gfx.o
 .text          0x00000000        0x0 tank_jelly_bn_gfx.o
 .data          0x00000000        0x0 tank_jelly_bn_gfx.o
 .bss           0x00000000        0x0 tank_jelly_bn_gfx.o
 .text          0x00000000        0x0 wizard_bn_gfx.o
 .data          0x00000000        0x0 wizard_bn_gfx.o
 .bss           0x00000000        0x0 wizard_bn_gfx.o
 .text          0x00000000        0x0 wizard_aura_bn_gfx.o
 .data          0x00000000        0x0 wizard_aura_bn_gfx.o
 .bss           0x00000000        0x0 wizard_aura_bn_gfx.o
 .data          0x00000000        0x0 C:\Users\Linny\AppData\Local\Temp\cc3nsn9g.ltrans0.ltrans.o
 .bss           0x00000000        0x0 C:\Users\Linny\AppData\Local\Temp\cc3nsn9g.ltrans0.ltrans.o
 .data          0x00000000        0x0 C:\Users\Linny\AppData\Local\Temp\cc3nsn9g.ltrans1.ltrans.o
 .bss           0x00000000        0x0 C:\Users\Linny\AppData\Local\Temp\cc3nsn9g.ltrans1.ltrans.o
 .data          0x00000000        0x0 C:\Users\Linny\AppData\Local\Temp\cc3nsn9g.ltrans2.ltrans.o
 .bss           0x00000000        0x0 C:\Users\Linny\AppData\Local\Temp\cc3nsn9g.ltrans2.ltrans.o
 .data          0x00000000        0x0 C:\Users\Linny\AppData\Local\Temp\cc3nsn9g.ltrans3.ltrans.o
 .bss           0x00000000        0x0 C:\Users\Linny\AppData\Local\Temp\cc3nsn9g.ltrans3.ltrans.o
 .data          0x00000000        0x0 C:\Users\Linny\AppData\Local\Temp\cc3nsn9g.ltrans4.ltrans.o
 .data          0x00000000        0x0 C:\Users\Linny\AppData\Local\Temp\cc3nsn9g.ltrans5.ltrans.o
 .bss           0x00000000        0x0 C:\Users\Linny\AppData\Local\Temp\cc3nsn9g.ltrans5.ltrans.o
 .data          0x00000000        0x0 C:\Users\Linny\AppData\Local\Temp\cc3nsn9g.ltrans6.ltrans.o
 .bss           0x00000000        0x0 C:\Users\Linny\AppData\Local\Temp\cc3nsn9g.ltrans6.ltrans.o
 .data          0x00000000        0x0 C:\Users\Linny\AppData\Local\Temp\cc3nsn9g.ltrans7.ltrans.o
 .comment       0x00000000       0x24 C:\Users\Linny\AppData\Local\Temp\cc0QidYf.debug.temp.o
 .comment       0x00000000       0x24 C:\Users\Linny\AppData\Local\Temp\ccqHmLQ6.debug.temp.o
 .comment       0x00000000       0x24 C:\Users\Linny\AppData\Local\Temp\ccAFu9EX.debug.temp.o
 .comment       0x00000000       0x24 C:\Users\Linny\AppData\Local\Temp\ccyrT7GO.debug.temp.o
 .comment       0x00000000       0x24 C:\Users\Linny\AppData\Local\Temp\cc803ODF.debug.temp.o
 .comment       0x00000000       0x24 C:\Users\Linny\AppData\Local\Temp\ccyrM6Nw.debug.temp.o
 .comment       0x00000000       0x24 C:\Users\Linny\AppData\Local\Temp\ccAJmFTn.debug.temp.o
 .comment       0x00000000       0x24 C:\Users\Linny\AppData\Local\Temp\ccCbYndf.debug.temp.o
 .comment       0x00000000       0x24 C:\Users\Linny\AppData\Local\Temp\ccIfMjv5.debug.temp.o
 .comment       0x00000000       0x24 C:\Users\Linny\AppData\Local\Temp\ccMULdKV.debug.temp.o
 .comment       0x00000000       0x24 C:\Users\Linny\AppData\Local\Temp\ccA9fyUL.debug.temp.o
 .comment       0x00000000       0x24 C:\Users\Linny\AppData\Local\Temp\cciTpTiC.debug.temp.o
 .comment       0x00000000       0x24 C:\Users\Linny\AppData\Local\Temp\ccCAm7Ps.debug.temp.o
 .comment       0x00000000       0x24 C:\Users\Linny\AppData\Local\Temp\ccqpvbij.debug.temp.o
 .comment       0x00000000       0x24 C:\Users\Linny\AppData\Local\Temp\cc2voHX9.debug.temp.o
 .comment       0x00000000       0x24 C:\Users\Linny\AppData\Local\Temp\ccsikEy0.debug.temp.o
 .comment       0x00000000       0x24 C:\Users\Linny\AppData\Local\Temp\cccb4VcQ.debug.temp.o
 .comment       0x00000000       0x24 C:\Users\Linny\AppData\Local\Temp\ccQEmN1F.debug.temp.o
 .comment       0x00000000       0x24 C:\Users\Linny\AppData\Local\Temp\cccFS4Lv.debug.temp.o
 .comment       0x00000000       0x24 C:\Users\Linny\AppData\Local\Temp\cco0pOJl.debug.temp.o
 .comment       0x00000000       0x24 C:\Users\Linny\AppData\Local\Temp\ccq8mxDb.debug.temp.o
 .comment       0x00000000       0x24 C:\Users\Linny\AppData\Local\Temp\ccW107F1.debug.temp.o
 .comment       0x00000000       0x24 C:\Users\Linny\AppData\Local\Temp\ccGQ8ArV.debug.temp.o
 .comment       0x00000000       0x24 C:\Users\Linny\AppData\Local\Temp\ccafLu8O.debug.temp.o
 .comment       0x00000000       0x24 C:\Users\Linny\AppData\Local\Temp\ccy82o3I.debug.temp.o
 .comment       0x00000000       0x24 C:\Users\Linny\AppData\Local\Temp\ccsQib7C.debug.temp.o
 .comment       0x00000000       0x24 C:\Users\Linny\AppData\Local\Temp\ccsRm57w.debug.temp.o
 .comment       0x00000000       0x24 C:\Users\Linny\AppData\Local\Temp\ccidsrmr.debug.temp.o
 .comment       0x00000000       0x24 C:\Users\Linny\AppData\Local\Temp\ccO2tdwl.debug.temp.o
 .comment       0x00000000       0x24 C:\Users\Linny\AppData\Local\Temp\ccQgYlJe.debug.temp.o
 .comment       0x00000000       0x24 C:\Users\Linny\AppData\Local\Temp\ccaUoM47.debug.temp.o
 .comment       0x00000000       0x24 C:\Users\Linny\AppData\Local\Temp\ccc42Cl1.debug.temp.o
 .comment       0x00000000       0x24 C:\Users\Linny\AppData\Local\Temp\cc4yIVPU.debug.temp.o
 .comment       0x00000000       0x24 C:\Users\Linny\AppData\Local\Temp\ccA8xFtO.debug.temp.o
 .comment       0x00000000       0x24 C:\Users\Linny\AppData\Local\Temp\ccMbkP2H.debug.temp.o
 .comment       0x00000000       0x24 C:\Users\Linny\AppData\Local\Temp\ccE07sGA.debug.temp.o
 .comment       0x00000000       0x24 C:\Users\Linny\AppData\Local\Temp\ccgpqxft.debug.temp.o
 .comment       0x00000000       0x24 C:\Users\Linny\AppData\Local\Temp\ccMioC2l.debug.temp.o
 .comment       0x00000000       0x24 C:\Users\Linny\AppData\Local\Temp\cc0Iz7Ke.debug.temp.o
 .comment       0x00000000       0x24 C:\Users\Linny\AppData\Local\Temp\cc2qv4G7.debug.temp.o
 .comment       0x00000000       0x24 C:\Users\Linny\AppData\Local\Temp\ccsHckL0.debug.temp.o
 .comment       0x00000000       0x24 C:\Users\Linny\AppData\Local\Temp\ccAu7ZKT.debug.temp.o
 .comment       0x00000000       0x24 C:\Users\Linny\AppData\Local\Temp\ccaAW1NL.debug.temp.o
 .comment       0x00000000       0x24 C:\Users\Linny\AppData\Local\Temp\ccscZtMD.debug.temp.o
 .comment       0x00000000       0x24 C:\Users\Linny\AppData\Local\Temp\ccMvLUHv.debug.temp.o
 .comment       0x00000000       0x24 C:\Users\Linny\AppData\Local\Temp\ccYImWQn.debug.temp.o
 .comment       0x00000000       0x24 C:\Users\Linny\AppData\Local\Temp\ccO07o9f.debug.temp.o
 .comment       0x00000000       0x24 C:\Users\Linny\AppData\Local\Temp\cckgj9m8.debug.temp.o
 .comment       0x00000000       0x24 C:\Users\Linny\AppData\Local\Temp\ccGm2tO0.debug.temp.o
 .comment       0x00000000       0x24 C:\Users\Linny\AppData\Local\Temp\ccAaZwaT.debug.temp.o
 .comment       0x00000000       0x24 C:\Users\Linny\AppData\Local\Temp\ccGW10bP.debug.temp.o
 .comment       0x00000000       0x24 C:\Users\Linny\AppData\Local\Temp\ccMI4udL.debug.temp.o
 .comment       0x00000000       0x24 C:\Users\Linny\AppData\Local\Temp\ccIlFzsH.debug.temp.o
 .comment       0x00000000       0x24 C:\Users\Linny\AppData\Local\Temp\ccwwxdSD.debug.temp.o
 .debug_info    0x00000000      0x45f C:\Users\Linny\AppData\Local\Temp\cc2H68cA.debug.temp.o
 .debug_abbrev  0x00000000       0xdc C:\Users\Linny\AppData\Local\Temp\cc2H68cA.debug.temp.o
 .debug_line    0x00000000      0x228 C:\Users\Linny\AppData\Local\Temp\cc2H68cA.debug.temp.o
 .debug_str     0x00000000      0x4f4 C:\Users\Linny\AppData\Local\Temp\cc2H68cA.debug.temp.o
 .comment       0x00000000       0x24 C:\Users\Linny\AppData\Local\Temp\cc2H68cA.debug.temp.o
 .debug_info    0x00000000     0xb06d C:\Users\Linny\AppData\Local\Temp\ccmHWELw.debug.temp.o
 .debug_abbrev  0x00000000      0xb05 C:\Users\Linny\AppData\Local\Temp\ccmHWELw.debug.temp.o
 .debug_line    0x00000000      0x7b7 C:\Users\Linny\AppData\Local\Temp\ccmHWELw.debug.temp.o
 .debug_str     0x00000000     0xb3ab C:\Users\Linny\AppData\Local\Temp\ccmHWELw.debug.temp.o
 .comment       0x00000000       0x24 C:\Users\Linny\AppData\Local\Temp\ccmHWELw.debug.temp.o
 .comment       0x00000000       0x24 C:\Users\Linny\AppData\Local\Temp\ccwXF1ft.debug.temp.o
 .comment       0x00000000       0x24 C:\Users\Linny\AppData\Local\Temp\ccYImjNo.debug.temp.o
 .comment       0x00000000       0x24 C:\Users\Linny\AppData\Local\Temp\cc0eyjfk.debug.temp.o
 .comment       0x00000000       0x24 C:\Users\Linny\AppData\Local\Temp\ccyzHbQf.debug.temp.o
 .comment       0x00000000       0x24 C:\Users\Linny\AppData\Local\Temp\cc40AdFb.debug.temp.o
 .comment       0x00000000       0x24 C:\Users\Linny\AppData\Local\Temp\ccgqUwp7.debug.temp.o
 .comment       0x00000000       0x24 C:\Users\Linny\AppData\Local\Temp\cciGLqn3.debug.temp.o
 .comment       0x00000000       0x24 C:\Users\Linny\AppData\Local\Temp\ccmDmjiZ.debug.temp.o
 .comment       0x00000000       0x24 C:\Users\Linny\AppData\Local\Temp\ccymOXbU.debug.temp.o
 .comment       0x00000000       0x24 C:\Users\Linny\AppData\Local\Temp\ccAWNcjP.debug.temp.o
 .comment       0x00000000       0x24 C:\Users\Linny\AppData\Local\Temp\cciudJlK.debug.temp.o
 .debug_info    0x00000000      0x4b0 C:\Users\Linny\AppData\Local\Temp\cc01CfoF.debug.temp.o
 .debug_abbrev  0x00000000      0x133 C:\Users\Linny\AppData\Local\Temp\cc01CfoF.debug.temp.o
 .debug_line    0x00000000      0x2da C:\Users\Linny\AppData\Local\Temp\cc01CfoF.debug.temp.o
 .debug_str     0x00000000      0x545 C:\Users\Linny\AppData\Local\Temp\cc01CfoF.debug.temp.o
 .comment       0x00000000       0x24 C:\Users\Linny\AppData\Local\Temp\cc01CfoF.debug.temp.o
 .comment       0x00000000       0x24 C:\Users\Linny\AppData\Local\Temp\ccqaoNDA.debug.temp.o
 .comment       0x00000000       0x24 C:\Users\Linny\AppData\Local\Temp\ccwgzCOv.debug.temp.o
 .comment       0x00000000       0x24 C:\Users\Linny\AppData\Local\Temp\ccmAJT8q.debug.temp.o
 .comment       0x00000000       0x24 C:\Users\Linny\AppData\Local\Temp\cccUTatm.debug.temp.o
 .comment       0x00000000       0x24 C:\Users\Linny\AppData\Local\Temp\ccgDtmQg.debug.temp.o
 .comment       0x00000000       0x24 C:\Users\Linny\AppData\Local\Temp\ccq9kxab.debug.temp.o
 .comment       0x00000000       0x24 C:\Users\Linny\AppData\Local\Temp\ccottiI5.debug.temp.o
 .debug_info    0x00000000      0x830 C:\Users\Linny\AppData\Local\Temp\ccmNB3f0.debug.temp.o
 .debug_abbrev  0x00000000      0x1b1 C:\Users\Linny\AppData\Local\Temp\ccmNB3f0.debug.temp.o
 .debug_line    0x00000000      0x11f C:\Users\Linny\AppData\Local\Temp\ccmNB3f0.debug.temp.o
 .debug_str     0x00000000      0x356 C:\Users\Linny\AppData\Local\Temp\ccmNB3f0.debug.temp.o
 .comment       0x00000000       0x24 C:\Users\Linny\AppData\Local\Temp\ccmNB3f0.debug.temp.o
 .debug_info    0x00000000      0x728 C:\Users\Linny\AppData\Local\Temp\cc0495IU.debug.temp.o
 .debug_abbrev  0x00000000      0x19e C:\Users\Linny\AppData\Local\Temp\cc0495IU.debug.temp.o
 .debug_line    0x00000000      0x110 C:\Users\Linny\AppData\Local\Temp\cc0495IU.debug.temp.o
 .debug_str     0x00000000      0x307 C:\Users\Linny\AppData\Local\Temp\cc0495IU.debug.temp.o
 .comment       0x00000000       0x24 C:\Users\Linny\AppData\Local\Temp\cc0495IU.debug.temp.o
 .debug_info    0x00000000      0x278 C:\Users\Linny\AppData\Local\Temp\ccirSzlP.debug.temp.o
 .debug_abbrev  0x00000000      0x162 C:\Users\Linny\AppData\Local\Temp\ccirSzlP.debug.temp.o
 .debug_line    0x00000000      0x13b C:\Users\Linny\AppData\Local\Temp\ccirSzlP.debug.temp.o
 .debug_str     0x00000000      0x29a C:\Users\Linny\AppData\Local\Temp\ccirSzlP.debug.temp.o
 .comment       0x00000000       0x24 C:\Users\Linny\AppData\Local\Temp\ccirSzlP.debug.temp.o
 .comment       0x00000000       0x24 C:\Users\Linny\AppData\Local\Temp\ccANA3XJ.debug.temp.o
 .comment       0x00000000       0x24 C:\Users\Linny\AppData\Local\Temp\ccI0Q7NE.debug.temp.o
 .comment       0x00000000       0x24 C:\Users\Linny\AppData\Local\Temp\ccoVkUyz.debug.temp.o
 .comment       0x00000000       0x24 C:\Users\Linny\AppData\Local\Temp\ccsAih3x.debug.temp.o
 .debug_info    0x00000000       0xf6 C:\Users\Linny\AppData\Local\Temp\ccmw9utw.debug.temp.o
 .debug_abbrev  0x00000000       0xc8 C:\Users\Linny\AppData\Local\Temp\ccmw9utw.debug.temp.o
 .debug_line    0x00000000       0xe7 C:\Users\Linny\AppData\Local\Temp\ccmw9utw.debug.temp.o
 .debug_str     0x00000000      0x1da C:\Users\Linny\AppData\Local\Temp\ccmw9utw.debug.temp.o
 .comment       0x00000000       0x24 C:\Users\Linny\AppData\Local\Temp\ccmw9utw.debug.temp.o
 .debug_info    0x00000000      0x357 C:\Users\Linny\AppData\Local\Temp\cc6iyj7u.debug.temp.o
 .debug_abbrev  0x00000000      0x131 C:\Users\Linny\AppData\Local\Temp\cc6iyj7u.debug.temp.o
 .debug_line    0x00000000       0xe1 C:\Users\Linny\AppData\Local\Temp\cc6iyj7u.debug.temp.o
 .debug_str     0x00000000      0x2ee C:\Users\Linny\AppData\Local\Temp\cc6iyj7u.debug.temp.o
 .comment       0x00000000       0x24 C:\Users\Linny\AppData\Local\Temp\cc6iyj7u.debug.temp.o
 .comment       0x00000000       0x24 C:\Users\Linny\AppData\Local\Temp\ccy6DpGt.debug.temp.o
 .text          0x00000000        0x0 bn_sprites_manager.bn_iwram.o
 .data          0x00000000        0x0 bn_sprites_manager.bn_iwram.o
 .bss           0x00000000        0x0 bn_sprites_manager.bn_iwram.o
 .group         0x00000000        0xc bn_hw_common.bn_noflto.o
 .group         0x00000000        0xc bn_hw_common.bn_noflto.o
 .text          0x00000000        0x0 bn_hw_common.bn_noflto.o
 .data          0x00000000        0x0 bn_hw_common.bn_noflto.o
 .bss           0x00000000        0x0 bn_hw_common.bn_noflto.o
 .text.__assert_func
                0x00000000       0x10 bn_hw_common.bn_noflto.o
 .text._ZN3_bn6assert9show_argsIA27_cEEvPKcS4_S4_iRKT_
                0x00000000       0x48 bn_hw_common.bn_noflto.o
 .rodata.__aeabi_ldiv0.str1.4
                0x00000000       0x38 bn_hw_common.bn_noflto.o
 .text.__aeabi_ldiv0
                0x00000000       0x24 bn_hw_common.bn_noflto.o
 .bss.__dso_handle
                0x00000000        0x4 bn_hw_common.bn_noflto.o
 .text          0x00000000        0x0 bn_hw_game_pak.bn_ewram.o
 .data          0x00000000        0x0 bn_hw_game_pak.bn_ewram.o
 .bss           0x00000000        0x0 bn_hw_game_pak.bn_ewram.o
 .text          0x00000000        0x0 bn_hw_gpio.bn_noflto.o
 .data          0x00000000        0x0 bn_hw_gpio.bn_noflto.o
 .bss           0x00000000        0x0 bn_hw_gpio.bn_noflto.o
 .text          0x00000000        0x0 bn_hw_palettes.bn_iwram.o
 .data          0x00000000        0x0 bn_hw_palettes.bn_iwram.o
 .bss           0x00000000        0x0 bn_hw_palettes.bn_iwram.o
 .text          0x00000000        0x0 bn_hw_sprite_tiles.bn_iwram.o
 .data          0x00000000        0x0 bn_hw_sprite_tiles.bn_iwram.o
 .bss           0x00000000        0x0 bn_hw_sprite_tiles.bn_iwram.o
 .text          0x00000000        0x0 bn_hw_sram.bn_ewram.o
 .data          0x00000000        0x0 bn_hw_sram.bn_ewram.o
 .bss           0x00000000        0x0 bn_hw_sram.bn_ewram.o
 .ewram         0x00000000       0x10 bn_hw_sram.bn_ewram.o
 .debug_info    0x00000000      0x521 bn_hw_sram.bn_ewram.o
 .debug_abbrev  0x00000000      0x178 bn_hw_sram.bn_ewram.o
 .debug_loc     0x00000000       0xe4 bn_hw_sram.bn_ewram.o
 .debug_aranges
                0x00000000       0x20 bn_hw_sram.bn_ewram.o
 .debug_ranges  0x00000000       0x10 bn_hw_sram.bn_ewram.o
 .debug_line    0x00000000      0x31e bn_hw_sram.bn_ewram.o
 .debug_str     0x00000000      0x554 bn_hw_sram.bn_ewram.o
 .comment       0x00000000       0x24 bn_hw_sram.bn_ewram.o
 .debug_frame   0x00000000       0x20 bn_hw_sram.bn_ewram.o
 .text          0x00000000        0x0 bn_hw_sram.bn_noflto.o
 .data          0x00000000        0x0 bn_hw_sram.bn_noflto.o
 .bss           0x00000000        0x0 bn_hw_sram.bn_noflto.o
 .text          0x00000000        0x0 bn_hw_bg_blocks.o
 .data          0x00000000        0x0 bn_hw_bg_blocks.o
 .bss           0x00000000        0x0 bn_hw_bg_blocks.o
 .data          0x00000000        0x0 bn_hw_core.o
 .bss           0x00000000        0x0 bn_hw_core.o
 .text          0x00000000        0x0 bn_hw_hblank_effects.o
 .data          0x00000000        0x0 bn_hw_hblank_effects.o
 .bss           0x00000000        0x0 bn_hw_hblank_effects.o
 .text          0x00000000        0x0 bn_hw_palettes_asm.o
 .data          0x00000000        0x0 bn_hw_palettes_asm.o
 .bss           0x00000000        0x0 bn_hw_palettes_asm.o
 .text          0x00000000        0x0 clr_blend_fast.o
 .data          0x00000000        0x0 clr_blend_fast.o
 .bss           0x00000000        0x0 clr_blend_fast.o
 .text          0x00000000        0x0 clr_fade_fast.o
 .data          0x00000000        0x0 clr_fade_fast.o
 .bss           0x00000000        0x0 clr_fade_fast.o
 .text          0x00000000        0x0 tonc_bios.o
 .data          0x00000000        0x0 tonc_bios.o
 .bss           0x00000000        0x0 tonc_bios.o
 .text.SoftReset
                0x00000000        0x4 tonc_bios.o
 .text.RegisterRamReset
                0x00000000        0x4 tonc_bios.o
 .text.Halt     0x00000000        0x4 tonc_bios.o
 .text.IntrWait
                0x00000000        0x4 tonc_bios.o
 .text.Div      0x00000000        0x4 tonc_bios.o
 .text.DivArm   0x00000000        0x4 tonc_bios.o
 .text.Sqrt     0x00000000        0x4 tonc_bios.o
 .text.ArcTan   0x00000000        0x4 tonc_bios.o
 .text.ArcTan2  0x00000000        0x4 tonc_bios.o
 .text.CpuSet   0x00000000        0x4 tonc_bios.o
 .text.CpuFastSet
                0x00000000        0x4 tonc_bios.o
 .text.BiosCheckSum
                0x00000000        0x4 tonc_bios.o
 .text.BgAffineSet
                0x00000000        0x4 tonc_bios.o
 .text.ObjAffineSet
                0x00000000        0x4 tonc_bios.o
 .text.BitUnPack
                0x00000000        0x4 tonc_bios.o
 .text.LZ77UnCompWram
                0x00000000        0x4 tonc_bios.o
 .text.LZ77UnCompVram
                0x00000000        0x4 tonc_bios.o
 .text.HuffUnComp
                0x00000000        0x4 tonc_bios.o
 .text.RLUnCompWram
                0x00000000        0x4 tonc_bios.o
 .text.RLUnCompVram
                0x00000000        0x4 tonc_bios.o
 .text.Diff8bitUnFilterWram
                0x00000000        0x4 tonc_bios.o
 .text.Diff8bitUnFilterVram
                0x00000000        0x4 tonc_bios.o
 .text.Diff16bitUnFilter
                0x00000000        0x4 tonc_bios.o
 .text.SoundBias
                0x00000000        0x4 tonc_bios.o
 .text.SoundDriverInit
                0x00000000        0x4 tonc_bios.o
 .text.SoundDriverMode
                0x00000000        0x4 tonc_bios.o
 .text.SoundDriverMain
                0x00000000        0x4 tonc_bios.o
 .text.SoundDriverVSync
                0x00000000        0x4 tonc_bios.o
 .text.SoundChannelClear
                0x00000000        0x4 tonc_bios.o
 .text.MidiKey2Freq
                0x00000000        0x4 tonc_bios.o
 .text.MultiBoot
                0x00000000        0x4 tonc_bios.o
 .text.SoundDriverVSyncOff
                0x00000000        0x4 tonc_bios.o
 .text.SoundDriverVSyncOn
                0x00000000        0x4 tonc_bios.o
 .text          0x00000000        0x0 tonc_memset.o
 .data          0x00000000        0x0 tonc_memset.o
 .bss           0x00000000        0x0 tonc_memset.o
 .text          0x00000000        0x0 tonc_nocash.o
 .data          0x00000000        0x0 tonc_nocash.o
 .bss           0x00000000        0x0 tonc_nocash.o
 .text.nocash_puts
                0x00000000       0x38 tonc_nocash.o
 .ewram.nocash_message
                0x00000000       0x5c tonc_nocash.o
 .debug_line    0x00000000       0xc1 tonc_nocash.o
 .debug_info    0x00000000       0x3a tonc_nocash.o
 .debug_abbrev  0x00000000       0x26 tonc_nocash.o
 .debug_aranges
                0x00000000       0x28 tonc_nocash.o
 .debug_str     0x00000000       0xde tonc_nocash.o
 .debug_ranges  0x00000000       0x20 tonc_nocash.o
 .text          0x00000000        0x0 verdana9.o
 .data          0x00000000        0x0 verdana9.o
 .bss           0x00000000        0x0 verdana9.o
 .text          0x00000000        0x0 irq_handler.o
 .data          0x00000000        0x0 irq_handler.o
 .bss           0x00000000        0x0 irq_handler.o
 .data          0x00000000        0x0 posprintf.o
 .bss           0x00000000        0x0 posprintf.o
 .text          0x00000000        0x0 atan2.o
 .data          0x00000000        0x0 atan2.o
 .bss           0x00000000        0x0 atan2.o
 .iwram.__agbabi_atan2
                0x00000000       0xd4 atan2.o
 .debug_line    0x00000000       0xc1 atan2.o
 .debug_info    0x00000000       0x24 atan2.o
 .debug_abbrev  0x00000000       0x14 atan2.o
 .debug_aranges
                0x00000000       0x20 atan2.o
 .debug_str     0x00000000       0xbc atan2.o
 .text          0x00000000        0x0 coroutine_asm.o
 .data          0x00000000        0x0 coroutine_asm.o
 .bss           0x00000000        0x0 coroutine_asm.o
 .iwram.__agbabi_coro_resume
                0x00000000       0x20 coroutine_asm.o
 .iwram.__agbabi_coro_yield
                0x00000000       0x1c coroutine_asm.o
 .iwram.__agbabi_coro_pop
                0x00000000       0x34 coroutine_asm.o
 .debug_line    0x00000000       0xce coroutine_asm.o
 .debug_info    0x00000000       0x22 coroutine_asm.o
 .debug_abbrev  0x00000000       0x12 coroutine_asm.o
 .debug_aranges
                0x00000000       0x30 coroutine_asm.o
 .debug_str     0x00000000       0xc4 coroutine_asm.o
 .debug_ranges  0x00000000       0x28 coroutine_asm.o
 .text          0x00000000        0x0 fiq_memcpy.o
 .data          0x00000000        0x0 fiq_memcpy.o
 .bss           0x00000000        0x0 fiq_memcpy.o
 .iwram.__agbabi_fiq_memcpy4
                0x00000000       0x70 fiq_memcpy.o
 .iwram.__agbabi_fiq_memcpy4x4
                0x00000000       0x54 fiq_memcpy.o
 .debug_line    0x00000000       0xd1 fiq_memcpy.o
 .debug_info    0x00000000       0x22 fiq_memcpy.o
 .debug_abbrev  0x00000000       0x12 fiq_memcpy.o
 .debug_aranges
                0x00000000       0x28 fiq_memcpy.o
 .debug_str     0x00000000       0xc1 fiq_memcpy.o
 .debug_ranges  0x00000000       0x20 fiq_memcpy.o
 .text          0x00000000        0x0 lmul.o
 .data          0x00000000        0x0 lmul.o
 .bss           0x00000000        0x0 lmul.o
 .iwram.__aeabi_llsl
                0x00000000       0x1c lmul.o
 .iwram.__aeabi_llsr
                0x00000000       0x1c lmul.o
 .iwram.__aeabi_lasr
                0x00000000       0x1c lmul.o
 .text          0x00000000        0x0 memcpy.o
 .data          0x00000000        0x0 memcpy.o
 .bss           0x00000000        0x0 memcpy.o
 .text          0x00000000        0x0 memmove.o
 .data          0x00000000        0x0 memmove.o
 .bss           0x00000000        0x0 memmove.o
 .iwram.__aeabi_memmove8
                0x00000000        0xc memmove.o
 .iwram.__agbabi_memmove1
                0x00000000        0xc memmove.o
 .text          0x00000000        0x0 memset.o
 .data          0x00000000        0x0 memset.o
 .bss           0x00000000        0x0 memset.o
 .iwram.__aeabi_memclr
                0x00000000       0x10 memset.o
 .text          0x00000000        0x0 rmemcpy.o
 .data          0x00000000        0x0 rmemcpy.o
 .bss           0x00000000        0x0 rmemcpy.o
 .text          0x00000000        0x0 clz.o
 .data          0x00000000        0x0 clz.o
 .bss           0x00000000        0x0 clz.o
 .iwram         0x00000000      0x148 clz.o
 .debug_line    0x00000000       0xa3 clz.o
 .debug_info    0x00000000       0x24 clz.o
 .debug_abbrev  0x00000000       0x14 clz.o
 .debug_aranges
                0x00000000       0x20 clz.o
 .debug_str     0x00000000       0xbe clz.o
 .text          0x00000000        0x0 sdiv32.o
 .data          0x00000000        0x0 sdiv32.o
 .bss           0x00000000        0x0 sdiv32.o
 .text          0x00000000        0x0 sqrt32.o
 .data          0x00000000        0x0 sqrt32.o
 .bss           0x00000000        0x0 sqrt32.o
 .text          0x00000000        0x0 udiv32.o
 .data          0x00000000        0x0 udiv32.o
 .bss           0x00000000        0x0 udiv32.o
 .text          0x00000000        0x0 huffman.o
 .data          0x00000000        0x0 huffman.o
 .bss           0x00000000        0x0 huffman.o
 .text          0x00000000        0x0 lz77.o
 .data          0x00000000        0x0 lz77.o
 .bss           0x00000000        0x0 lz77.o
 .text          0x00000000        0x0 running_length.o
 .data          0x00000000        0x0 running_length.o
 .bss           0x00000000        0x0 running_length.o
 .data          0x00000000        0x0 mm_effect.o
 .data          0x00000000        0x0 mm_main.o
 .data          0x00000000        0x0 mm_mas.o
 .text          0x00000000        0x0 mm_mas_arm.o
 .data          0x00000000        0x0 mm_mas_arm.o
 .bss           0x00000000        0x0 mm_mas_arm.o
 .text          0x00000000       0x44 mm_init_default.o
 .data          0x00000000        0x0 mm_init_default.o
 .bss           0x00000000      0x420 mm_init_default.o
 .debug_line    0x00000000       0xc0 mm_init_default.o
 .debug_info    0x00000000       0x23 mm_init_default.o
 .debug_abbrev  0x00000000       0x14 mm_init_default.o
 .debug_aranges
                0x00000000       0x20 mm_init_default.o
 .debug_str     0x00000000       0xcd mm_init_default.o
 .data          0x00000000        0x0 mm_main_gba.o
 .data          0x00000000        0x0 mm_mixer_gba.o
 .data          0x00000000        0x0 C:/devkitPro/devkitARM/bin/../lib/gcc/arm-none-eabi/14.2.0/thumb\libgcc.a(_call_via_rX.o)
 .bss           0x00000000        0x0 C:/devkitPro/devkitARM/bin/../lib/gcc/arm-none-eabi/14.2.0/thumb\libgcc.a(_call_via_rX.o)
 .text          0x00000000        0x4 C:/devkitPro/devkitARM/bin/../lib/gcc/arm-none-eabi/14.2.0/thumb\libgcc.a(_sync_none.o)
 .data          0x00000000        0x0 C:/devkitPro/devkitARM/bin/../lib/gcc/arm-none-eabi/14.2.0/thumb\libgcc.a(_sync_none.o)
 .bss           0x00000000        0x0 C:/devkitPro/devkitARM/bin/../lib/gcc/arm-none-eabi/14.2.0/thumb\libgcc.a(_sync_none.o)
 .text          0x00000000        0x0 C:/devkitPro/devkitARM/bin/../lib/gcc/arm-none-eabi/14.2.0/thumb/crtend.o
 .data          0x00000000        0x0 C:/devkitPro/devkitARM/bin/../lib/gcc/arm-none-eabi/14.2.0/thumb/crtend.o
 .bss           0x00000000        0x0 C:/devkitPro/devkitARM/bin/../lib/gcc/arm-none-eabi/14.2.0/thumb/crtend.o
 .rodata.all_implied_fbits
                0x00000000       0x24 C:/devkitPro/devkitARM/bin/../lib/gcc/arm-none-eabi/14.2.0/thumb/crtend.o
 .text          0x00000000        0x0 C:/devkitPro/devkitARM/bin/../lib/gcc/arm-none-eabi/14.2.0/thumb/crtn.o
 .data          0x00000000        0x0 C:/devkitPro/devkitARM/bin/../lib/gcc/arm-none-eabi/14.2.0/thumb/crtn.o
 .bss           0x00000000        0x0 C:/devkitPro/devkitARM/bin/../lib/gcc/arm-none-eabi/14.2.0/thumb/crtn.o

Memory Configuration

Name             Origin             Length             Attributes
rom              0x08000000         0x02000000
iwram            0x03000000         0x00008000
ewram            0x02000000         0x00040000
*default*        0x00000000         0xffffffff

Linker script and memory map

                0x00000000                        __sync_synchronize = __sync_synchronize_none
                0x08000000                        __text_start = ORIGIN (rom)
                0x02040000                        __eheap_end = (ORIGIN (ewram) + LENGTH (ewram))
                0x03000000                        __iwram_start = ORIGIN (iwram)
                0x03008000                        __iwram_top = (ORIGIN (iwram) + LENGTH (iwram))
                0x03007fa0                        __sp_irq = (__iwram_top - 0x60)
                0x03007f00                        __sp_usr = (__sp_irq - 0xa0)
                0x03007ff8                        __irq_flags = 0x3007ff8
                0x08000000                        . = __text_start

.crt0           0x08000000      0x210
 *(.crt0)
 .crt0          0x08000000      0x210 C:/devkitPro/devkitARM/bin/../lib/gcc/arm-none-eabi/14.2.0/../../../../arm-none-eabi/lib/thumb/gba_crt0.o
                0x08000000                _start
                0x080000c4                __boot_method
                0x080000c5                __slave_number
                0x080000e0                start_vector
                0x08000210                        . = ALIGN (0x4)

.init           0x08000210        0xc
 *(SORT_NONE(.init))
 .init          0x08000210        0x4 C:/devkitPro/devkitARM/bin/../lib/gcc/arm-none-eabi/14.2.0/thumb/crti.o
                0x08000210                _init
 .init          0x08000214        0x8 C:/devkitPro/devkitARM/bin/../lib/gcc/arm-none-eabi/14.2.0/thumb/crtn.o

.plt            0x0800021c        0x0
 *(.plt)
                0x0800021c                        . = ALIGN (0x4)

.text           0x08000220    0x3e3f8
 *(EXCLUDE_FILE(*.iwram*) .text*)
 .text.__do_global_dtors_aux
                0x08000220       0x2c C:/devkitPro/devkitARM/bin/../lib/gcc/arm-none-eabi/14.2.0/thumb/crtbegin.o
 .text.frame_dummy
                0x0800024c       0x24 C:/devkitPro/devkitARM/bin/../lib/gcc/arm-none-eabi/14.2.0/thumb/crtbegin.o
 .text          0x08000270     0x8f08 C:\Users\Linny\AppData\Local\Temp\cc3nsn9g.ltrans0.ltrans.o
                0x08000270                bf::game::tank_boss::_position() const
                0x08000298                bf::game::wizard_boss::_position() const
                0x080002ac                bf::game::gigabat_boss::_position() const
                0x080002bc                bf::game::boss::_throw_bomb() const
                0x08000628                bn::sprite_builder::~sprite_builder()
                0x08000628                bn::sprite_builder::~sprite_builder() [clone .lto_priv.0]
                0x080006b8                bn::optional<bn::camera_ptr>::operator=(bn::camera_ptr const&)
                0x0800073c                bn::random::update()
                0x0800075c                bn::fixed_rect_t<12>::intersects(bn::fixed_rect_t<12> const&) const
                0x080007b8                bf::game::direction_vector(bn::fixed_t<12>, bn::fixed_t<12>, bn::fixed_t<12>)
                0x0800083c                void _bn::assert::show_args<char [20]>(char const*, char const*, char const*, int, char const (&) [20])
                0x0800083c                void _bn::assert::show_args<char [17]>(char const*, char const*, char const*, int, char const (&) [17])
                0x0800083c                void _bn::assert::show_args<char [42]>(char const*, char const*, char const*, int, char const (&) [42])
                0x0800083c                void _bn::assert::show_args<char [30]>(char const*, char const*, char const*, int, char const (&) [30])
                0x0800083c                void _bn::assert::show_args<char [32]>(char const*, char const*, char const*, int, char const (&) [32])
                0x0800083c                void _bn::assert::show_args<char [31]>(char const*, char const*, char const*, int, char const (&) [31])
                0x0800083c                void _bn::assert::show_args<char [55]>(char const*, char const*, char const*, int, char const (&) [55])
                0x0800083c                void _bn::assert::show_args<char [13]>(char const*, char const*, char const*, int, char const (&) [13])
                0x0800083c                void _bn::assert::show_args<char [35]>(char const*, char const*, char const*, int, char const (&) [35])
                0x0800083c                void _bn::assert::show_args<char [15]>(char const*, char const*, char const*, int, char const (&) [15])
                0x0800083c                void _bn::assert::show_args<char [24]>(char const*, char const*, char const*, int, char const (&) [24])
                0x0800083c                void _bn::assert::show_args<char [16]>(char const*, char const*, char const*, int, char const (&) [16])
                0x0800083c                void _bn::assert::show_args<char [19]>(char const*, char const*, char const*, int, char const (&) [19])
                0x0800083c                void _bn::assert::show_args<char [37]>(char const*, char const*, char const*, int, char const (&) [37])
                0x0800083c                void _bn::assert::show_args<char [33]>(char const*, char const*, char const*, int, char const (&) [33])
                0x0800083c                void _bn::assert::show_args<char [53]>(char const*, char const*, char const*, int, char const (&) [53])
                0x0800083c                void _bn::assert::show_args<char [14]>(char const*, char const*, char const*, int, char const (&) [14])
                0x0800083c                void _bn::assert::show_args<char [54]>(char const*, char const*, char const*, int, char const (&) [54])
                0x0800083c                void _bn::assert::show_args<char [27]>(char const*, char const*, char const*, int, char const (&) [27])
                0x0800083c                void _bn::assert::show_args<char [38]>(char const*, char const*, char const*, int, char const (&) [38])
                0x0800083c                void _bn::assert::show_args<char [21]>(char const*, char const*, char const*, int, char const (&) [21])
                0x0800083c                void _bn::assert::show_args<char [18]>(char const*, char const*, char const*, int, char const (&) [18])
                0x0800083c                void _bn::assert::show_args<char [22]>(char const*, char const*, char const*, int, char const (&) [22])
                0x0800083c                void _bn::assert::show_args<char [66]>(char const*, char const*, char const*, int, char const (&) [66])
                0x0800083c                void _bn::assert::show_args<char [46]>(char const*, char const*, char const*, int, char const (&) [46])
                0x0800083c                void _bn::assert::show_args<char [26]>(char const*, char const*, char const*, int, char const (&) [26])
                0x0800083c                void _bn::assert::show_args<char [34]>(char const*, char const*, char const*, int, char const (&) [34])
                0x0800083c                void _bn::assert::show_args<char [63]>(char const*, char const*, char const*, int, char const (&) [63])
                0x0800083c                void _bn::assert::show_args<char [25]>(char const*, char const*, char const*, int, char const (&) [25])
                0x0800083c                void _bn::assert::show_args<char [23]>(char const*, char const*, char const*, int, char const (&) [23])
                0x0800087c                bn::iforward_list<bf::game::enemy_bullets::bullet_type>::value_node_type& bn::ipool<bn::iforward_list<bf::game::enemy_bullets::bullet_type>::value_node_type>::create<bf::game::enemy_bullets::bullet_type>(bf::game::enemy_bullets::bullet_type&&) [clone .part.0] [clone .lto_priv.0]
                0x0800087c                bn::iforward_list<bf::game::enemy>::value_node_type& bn::ipool<bn::iforward_list<bf::game::enemy>::value_node_type>::create<bf::game::enemy_event const&, bn::sprite_palette_ptr&, signed char&, bn::camera_ptr const&>(bf::game::enemy_event const&, bn::sprite_palette_ptr&, signed char&, bn::camera_ptr const&) [clone .part.0] [clone .lto_priv.0]
                0x08000964                bf::game::boss::play_music() const
                0x08000a88                bn::ideque<bn::sprite_animate_action<7> >::push_back(bn::sprite_animate_action<7>&&)
                0x08000b50                bn::to_value_template_action<bn::sprite_ptr, bn::fixed_point_t<12>, bn::sprite_position_manager>::update()
                0x08000bb4                void bn::ostringstream::append<12>(bn::fixed_t<12>)
                0x08000c50                void _bn::assert::show_args<char [27], bn::fixed_t<12> >(char const*, char const*, char const*, int, char const (&) [27], bn::fixed_t<12> const&)
                0x08000c50                void _bn::assert::show_args<char [17], bn::fixed_t<12> >(char const*, char const*, char const*, int, char const (&) [17], bn::fixed_t<12> const&)
                0x08000c50                void _bn::assert::show_args<char [18], bn::fixed_t<12> >(char const*, char const*, char const*, int, char const (&) [18], bn::fixed_t<12> const&)
                0x08000c50                void _bn::assert::show_args<char [20], bn::fixed_t<12> >(char const*, char const*, char const*, int, char const (&) [20], bn::fixed_t<12> const&)
                0x08000c50                void _bn::assert::show_args<char [21], bn::fixed_t<12> >(char const*, char const*, char const*, int, char const (&) [21], bn::fixed_t<12> const&)
                0x08000c50                void _bn::assert::show_args<char [25], bn::fixed_t<12> >(char const*, char const*, char const*, int, char const (&) [25], bn::fixed_t<12> const&)
                0x08000c50                void _bn::assert::show_args<char [26], bn::fixed_t<12> >(char const*, char const*, char const*, int, char const (&) [26], bn::fixed_t<12> const&)
                0x08000c50                void _bn::assert::show_args<char [33], bn::fixed_t<12> >(char const*, char const*, char const*, int, char const (&) [33], bn::fixed_t<12> const&)
                0x08000c50                void _bn::assert::show_args<char [31], bn::fixed_t<12> >(char const*, char const*, char const*, int, char const (&) [31], bn::fixed_t<12> const&)
                0x08000c50                void _bn::assert::show_args<char [23], bn::fixed_t<12> >(char const*, char const*, char const*, int, char const (&) [23], bn::fixed_t<12> const&)
                0x08000c50                void _bn::assert::show_args<char [19], bn::fixed_t<12> >(char const*, char const*, char const*, int, char const (&) [19], bn::fixed_t<12> const&)
                0x08000c50                void _bn::assert::show_args<char [29], bn::fixed_t<12> >(char const*, char const*, char const*, int, char const (&) [29], bn::fixed_t<12> const&)
                0x08000c50                void _bn::assert::show_args<char [32], bn::fixed_t<12> >(char const*, char const*, char const*, int, char const (&) [32], bn::fixed_t<12> const&)
                0x08000c50                void _bn::assert::show_args<char [35], bn::fixed_t<12> >(char const*, char const*, char const*, int, char const (&) [35], bn::fixed_t<12> const&)
                0x08000c50                void _bn::assert::show_args<char [22], bn::fixed_t<12> >(char const*, char const*, char const*, int, char const (&) [22], bn::fixed_t<12> const&)
                0x08000c50                void _bn::assert::show_args<char [16], bn::fixed_t<12> >(char const*, char const*, char const*, int, char const (&) [16], bn::fixed_t<12> const&)
                0x08000c50                void _bn::assert::show_args<char [38], bn::fixed_t<12> >(char const*, char const*, char const*, int, char const (&) [38], bn::fixed_t<12> const&)
                0x08000edc                bn::ivector<unsigned short>::push_back(unsigned short&&) [clone .part.0] [clone .lto_priv.0]
                0x08000edc                bn::ivector<signed char>::push_back(signed char&&) [clone .part.0] [clone .lto_priv.0]
                0x08000edc                bn::ivector<bn::sprite_third_attributes_hbe_ptr>::push_back(bn::sprite_third_attributes_hbe_ptr&&) [clone .part.0] [clone .lto_priv.0]
                0x08000edc                bn::ivector<bn::sprite_ptr>::push_back(bn::sprite_ptr&&) [clone .part.0] [clone .lto_priv.0]
                0x08000f04                bn::ivector<bn::sprite_ptr>::push_back(bn::sprite_ptr&&)
                0x08000f4c                bn::sprite_vertical_scale_to_action& bn::ivector<bn::sprite_vertical_scale_to_action>::emplace_back<bn::sprite_ptr&, int, bn::fixed_t<12> >(bn::sprite_ptr&, int&&, bn::fixed_t<12>&&) [clone .part.0] [clone .lto_priv.0]
                0x08000f4c                bn::sprite_vertical_scale_to_action& bn::ivector<bn::sprite_vertical_scale_to_action>::emplace_back<bn::sprite_ptr, int, int>(bn::sprite_ptr&&, int&&, int&&) [clone .part.0] [clone .lto_priv.0]
                0x08000f4c                bn::fixed_rect_t<12>& bn::ivector<bn::fixed_rect_t<12> >::emplace_back<bn::fixed_point_t<12>&, bn::fixed_size_t<12> >(bn::fixed_point_t<12>&, bn::fixed_size_t<12>&&) [clone .part.0] [clone .lto_priv.0]
                0x08000f74                bf::game::butano_boss::_update_rects()
                0x080011bc                bn::optional<bf::game::object>::operator->() [clone .part.0] [clone .lto_priv.0]
                0x080011bc                bn::optional<bn::blending_transparency_alpha_to_action>::operator->() [clone .part.0] [clone .lto_priv.3] [clone .lto_priv.0]
                0x080011bc                bn::optional<bn::regular_bg_tiles_ptr>::operator->() [clone .part.0] [clone .lto_priv.0]
                0x080011bc                bn::optional<bn::sprite_animate_action<7> >::operator->() [clone .part.0] [clone .lto_priv.0]
                0x080011bc                bn::optional<bn::sprite_horizontal_scale_to_action>::operator->() [clone .part.0] [clone .lto_priv.0]
                0x080011bc                bn::optional<bn::sprite_ptr>::operator->() [clone .part.0] [clone .lto_priv.0] [clone .lto_priv.0]
                0x080011bc                bn::optional<bn::sprite_scale_to_action>::operator->() [clone .part.0] [clone .lto_priv.0] [clone .lto_priv.0]
                0x080011bc                bn::optional<bn::regular_bg_move_by_action>::operator->() [clone .part.0] [clone .lto_priv.0] [clone .lto_priv.0]
                0x080011bc                bn::optional<bn::music_volume_to_action>::operator->() [clone .part.0] [clone .lto_priv.4] [clone .lto_priv.0]
                0x080011bc                bn::optional<bn::sprite_move_to_action>::operator->() [clone .part.0] [clone .lto_priv.0] [clone .lto_priv.0]
                0x080011bc                bn::optional<bn::rect_window_move_top_by_action>::operator->() [clone .part.0] [clone .lto_priv.1] [clone .lto_priv.0]
                0x080011bc                bn::optional<bn::rect_window_move_bottom_by_action>::operator->() [clone .part.0] [clone .lto_priv.1] [clone .lto_priv.0]
                0x080011bc                bn::optional<bn::sprite_visible_toggle_action>::operator->() [clone .part.0] [clone .lto_priv.0]
                0x080011bc                bn::optional<bn::rect_window_move_bottom_to_action>::operator->() [clone .part.0] [clone .lto_priv.0]
                0x080011bc                bn::optional<bn::bg_palette_ptr>::operator->() [clone .part.0] [clone .lto_priv.0]
                0x080011bc                bn::optional<bf::game::explosion>::operator->() [clone .part.0] [clone .lto_priv.2] [clone .lto_priv.0]
                0x080011bc                bn::optional<bn::sprite_rotate_by_action>::operator->() [clone .part.0] [clone .lto_priv.0] [clone .lto_priv.0]
                0x080011bc                bn::optional<bn::sprite_move_to_action>::operator->() [clone .part.0] [clone .lto_priv.1] [clone .lto_priv.0]
                0x080011bc                bn::optional<bn::blending_intensity_alpha_to_action>::operator->() [clone .part.0] [clone .lto_priv.0] [clone .lto_priv.0]
                0x080011bc                bn::optional<bn::sprite_rotate_by_action>::operator->() [clone .part.0] [clone .lto_priv.1] [clone .lto_priv.0]
                0x080011bc                bn::optional<bn::sprite_move_to_action>::operator->() [clone .part.0] [clone .lto_priv.2] [clone .lto_priv.0]
                0x080011bc                bn::optional<bn::sprite_tiles_ptr>::operator->() [clone .part.0] [clone .lto_priv.0]
                0x080011bc                bn::optional<bn::rect_window_move_top_to_action>::operator->() [clone .part.0] [clone .lto_priv.0]
                0x080011bc                bn::optional<bf::game::explosion>::operator->() [clone .part.0] [clone .lto_priv.0] [clone .lto_priv.0]
                0x080011bc                bn::optional<bn::rect_window_boundaries_hbe_ptr>::operator->() [clone .part.0] [clone .lto_priv.1] [clone .lto_priv.0]
                0x080011bc                bn::optional<bn::blending_transparency_alpha_to_action>::operator->() [clone .part.0] [clone .lto_priv.5] [clone .lto_priv.0]
                0x080011bc                bn::optional<bf::game::explosion>::operator->() [clone .part.0] [clone .lto_priv.3] [clone .lto_priv.0]
                0x080011bc                bn::optional<bn::sprite_affine_mat_rotate_by_action>::operator->() [clone .part.0] [clone .lto_priv.0]
                0x080011bc                bn::optional<bn::music_volume_to_action>::operator->() [clone .part.0] [clone .lto_priv.3] [clone .lto_priv.0]
                0x080011bc                bn::optional<bn::sprite_palette_ptr>::operator->() [clone .part.0] [clone .lto_priv.0]
                0x080011bc                bn::optional<bn::sprite_ptr>::operator->() [clone .part.0] [clone .lto_priv.1] [clone .lto_priv.0]
                0x080011bc                bn::optional<bn::music_volume_to_action>::operator->() [clone .part.0] [clone .lto_priv.2] [clone .lto_priv.0]
                0x080011bc                bn::optional<bn::blending_transparency_alpha_to_action>::operator->() [clone .part.0] [clone .lto_priv.4] [clone .lto_priv.0]
                0x080011bc                bn::optional<bn::sprite_palette_fade_to_action>::operator->() [clone .part.0] [clone .lto_priv.0]
                0x080011bc                bn::optional<bn::sprite_scale_to_action>::operator->() [clone .part.0] [clone .lto_priv.1] [clone .lto_priv.0]
                0x080011bc                bn::optional<bn::sprite_cached_animate_action<2> >::operator->() [clone .part.0] [clone .lto_priv.0]
                0x080011bc                bn::optional<bn::regular_bg_move_by_action>::operator->() [clone .part.0] [clone .lto_priv.1] [clone .lto_priv.0]
                0x080011bc                bn::optional<bf::game::explosion>::operator->() [clone .part.0] [clone .lto_priv.1] [clone .lto_priv.0]
                0x080011bc                bn::optional<bn::sprite_vertical_scale_to_action>::operator->() [clone .part.0] [clone .lto_priv.0]
                0x080011bc                bn::optional<bf::game::explosion>::operator->() [clone .part.0] [clone .lto_priv.4] [clone .lto_priv.0]
                0x080011bc                bn::optional<bn::blending_intensity_alpha_to_action>::operator->() [clone .part.0] [clone .lto_priv.1] [clone .lto_priv.0]
                0x080011bc                bn::optional<bn::sprite_position_hbe_ptr>::operator->() [clone .part.0] [clone .lto_priv.0]
                0x080011e4                void _bn::assert::show_args<char [39], int>(char const*, char const*, char const*, int, char const (&) [39], int const&)
                0x080011e4                void _bn::assert::show_args<char [26], int>(char const*, char const*, char const*, int, char const (&) [26], int const&)
                0x080011e4                void _bn::assert::show_args<char [21], int>(char const*, char const*, char const*, int, char const (&) [21], int const&)
                0x080011e4                void _bn::assert::show_args<char [47], int>(char const*, char const*, char const*, int, char const (&) [47], int const&)
                0x080011e4                void _bn::assert::show_args<char [14], int>(char const*, char const*, char const*, int, char const (&) [14], int const&)
                0x080011e4                void _bn::assert::show_args<char [28], int>(char const*, char const*, char const*, int, char const (&) [28], int const&)
                0x080011e4                void _bn::assert::show_args<char [33], int>(char const*, char const*, char const*, int, char const (&) [33], int const&)
                0x080011e4                void _bn::assert::show_args<char [22], int>(char const*, char const*, char const*, int, char const (&) [22], int const&)
                0x080011e4                void _bn::assert::show_args<char [16], int>(char const*, char const*, char const*, int, char const (&) [16], int const&)
                0x080011e4                void _bn::assert::show_args<char [23], int>(char const*, char const*, char const*, int, char const (&) [23], int const&)
                0x080011e4                void _bn::assert::show_args<char [15], int>(char const*, char const*, char const*, int, char const (&) [15], int const&)
                0x080011e4                void _bn::assert::show_args<char [20], int>(char const*, char const*, char const*, int, char const (&) [20], int const&)
                0x080011e4                void _bn::assert::show_args<char [17], int>(char const*, char const*, char const*, int, char const (&) [17], int const&)
                0x080011e4                void _bn::assert::show_args<char [24], int>(char const*, char const*, char const*, int, char const (&) [24], int const&)
                0x080011e4                void _bn::assert::show_args<char [27], int>(char const*, char const*, char const*, int, char const (&) [27], int const&)
                0x080011e4                void _bn::assert::show_args<char [18], int>(char const*, char const*, char const*, int, char const (&) [18], int const&)
                0x080011e4                void _bn::assert::show_args<char [25], int>(char const*, char const*, char const*, int, char const (&) [25], int const&)
                0x08001234                bf::circle_generator::generate(bn::span<std::pair<bn::fixed_t<12>, bn::fixed_t<12> > >) const
                0x080013a0                bf::wave_generator::generate(bn::span<bn::fixed_t<12> >) const
                0x08001b38                bn::blending_transparency_alpha_to_action& bn::optional<bn::blending_transparency_alpha_to_action>::emplace<int, int>(int&&, int&&)
                0x08001b38                bn::blending_transparency_alpha_to_action& bn::optional<bn::blending_transparency_alpha_to_action>::emplace<int const&, int>(int const&, int&&)
                0x08001c00                bf::game::background::show_hero_dying()
                0x08001d30                void _bn::assert::show_args<char [23], int, char [4], int>(char const*, char const*, char const*, int, char const (&) [23], int const&, char const (&) [4], int const&)
                0x08001d30                void _bn::assert::show_args<char [32], int, char [4], int>(char const*, char const*, char const*, int, char const (&) [32], int const&, char const (&) [4], int const&)
                0x08001d30                void _bn::assert::show_args<char [22], int, char [4], int>(char const*, char const*, char const*, int, char const (&) [22], int const&, char const (&) [4], int const&)
                0x08001d30                void _bn::assert::show_args<char [29], int, char [4], int>(char const*, char const*, char const*, int, char const (&) [29], int const&, char const (&) [4], int const&)
                0x08001d30                void _bn::assert::show_args<char [33], int, char [4], int>(char const*, char const*, char const*, int, char const (&) [33], int const&, char const (&) [4], int const&)
                0x08001d30                void _bn::assert::show_args<char [17], int, char [4], int>(char const*, char const*, char const*, int, char const (&) [17], int const&, char const (&) [4], int const&)
                0x08001d30                void _bn::assert::show_args<char [37], int, char [4], int>(char const*, char const*, char const*, int, char const (&) [37], int const&, char const (&) [4], int const&)
                0x08001d30                void _bn::assert::show_args<char [20], int, char [4], int>(char const*, char const*, char const*, int, char const (&) [20], int const&, char const (&) [4], int const&)
                0x08001d30                void _bn::assert::show_args<char [46], int, char [4], int>(char const*, char const*, char const*, int, char const (&) [46], int const&, char const (&) [4], int const&)
                0x08001d30                void _bn::assert::show_args<char [16], int, char [4], int>(char const*, char const*, char const*, int, char const (&) [16], int const&, char const (&) [4], int const&)
                0x08001d30                void _bn::assert::show_args<char [14], int, char [4], int>(char const*, char const*, char const*, int, char const (&) [14], int const&, char const (&) [4], int const&)
                0x08001d30                void _bn::assert::show_args<char [58], int, char [4], int>(char const*, char const*, char const*, int, char const (&) [58], int const&, char const (&) [4], int const&)
                0x08001d30                void _bn::assert::show_args<char [25], int, char [4], int>(char const*, char const*, char const*, int, char const (&) [25], int const&, char const (&) [4], int const&)
                0x08001d30                void _bn::assert::show_args<char [19], int, char [4], int>(char const*, char const*, char const*, int, char const (&) [19], int const&, char const (&) [4], int const&)
                0x08001d30                void _bn::assert::show_args<char [27], int, char [4], int>(char const*, char const*, char const*, int, char const (&) [27], int const&, char const (&) [4], int const&)
                0x08001d30                void _bn::assert::show_args<char [39], int, char [4], int>(char const*, char const*, char const*, int, char const (&) [39], int const&, char const (&) [4], int const&)
                0x08001d94                bf::game::(anonymous namespace)::_create_sprite(int, int, bn::sprite_affine_mat_ptr const&) [clone .lto_priv.0]
                0x08001eac                bf::butano_background::_set_visible() [clone .part.0]
                0x08002074                bf::butano_background::put_under_all()
                0x080020e8                bn::ivector<bn::sprite_ptr>::operator[](int)
                0x080021ec                bf::game::butano_boss::_update_sprites()
                0x080028f0                bf::butano_background::show(bn::fixed_point_t<12> const&, bn::camera_ptr const&)
                0x08002f74                _ZN2bn7ivectorINS_10sprite_ptrEE5clearEvQnt27is_trivially_destructible_vIT_E.lto_priv.0
 .text          0x08009178     0x5318 C:\Users\Linny\AppData\Local\Temp\cc3nsn9g.ltrans1.ltrans.o
                0x080091dc                bn::by_value_template_action<bn::sprite_ptr, bn::fixed_point_t<12>, bn::sprite_position_manager>::update()
                0x08009254                bn::cyclic_by_value_template_action<bn::sprite_ptr, bn::fixed_t<12>, bn::sprite_rotation_manager>::update()
                0x08009334                bn::ideque<bn::sprite_animate_action<5> >::push_back(bn::sprite_animate_action<5>&&)
                0x08009400                bn::to_value_template_action<bn::sprite_ptr, bn::fixed_t<12>, bn::sprite_vertical_scale_manager>::update()
                0x08009508                bn::optional<bn::sprite_affine_mat_ptr>::operator*() [clone .part.0] [clone .lto_priv.0]
                0x08009508                bn::optional<bn::sprite_palette_ptr>::operator*() [clone .part.0] [clone .lto_priv.0]
                0x08009508                bn::optional<bn::fixed_t<12> >::operator*() [clone .part.0] [clone .lto_priv.0]
                0x080095f4                bf::game::enemy_bullets::clear()
                0x080096dc                bf::game::explosion::update()
                0x080097a8                bf::game::(anonymous namespace)::_create_mini_explosion(bn::fixed_t<12>, bn::fixed_t<12>, bn::camera_ptr const&) [clone .lto_priv.1] [clone .lto_priv.0]
                0x080097a8                bf::game::(anonymous namespace)::_create_mini_explosion(bn::fixed_t<12>, bn::fixed_t<12>, bn::camera_ptr const&) [clone .lto_priv.0] [clone .lto_priv.0]
                0x08009d4c                bf::game::enemy_bullets::add_bullet(bn::fixed_point_t<12> const&, bn::fixed_point_t<12> const&, bf::game::enemy_bullet_event const&, bn::camera_ptr const&)
                0x0800a3e8                bf::game::enemies::update(bf::game::hero_bomb const&, bf::game::intro const&, bn::camera_ptr const&, bf::game::hero&, bf::game::enemy_bullets&, bf::game::objects&, bf::game::boss_intro&, bf::game::scoreboard&, bf::game::background&, bf::game::rumble_manager&) [clone .part.0]
                0x0800c4f0                bf::game::enemy::_add_damage(bn::fixed_point_t<12> const&, bn::fixed_t<12>, int, bn::camera_ptr const&)
                0x0800ca54                bn::loop_value_template_action<bn::sprite_palette_ptr, bn::fixed_t<12>, bn::sprite_palette_fade_manager>::update()
                0x0800cb20                bf::game::gigabat_boss::_update_sprites(bn::fixed_point_t<12> const&, bool)
 .text          0x0800e490     0x71b0 C:\Users\Linny\AppData\Local\Temp\cc3nsn9g.ltrans2.ltrans.o
                0x0800e490                bf::game::tank_boss::_hero_should_look_down_impl(bn::fixed_point_t<12> const&, bool) const
                0x0800e4c8                bf::game::object::update()
                0x0800e564                bf::game::scoreboard::set_visible(bool)
                0x0800e5b0                bf::game::(anonymous namespace)::_cannon_end_position(bn::fixed_t<12>, bn::fixed_t<12>) [clone .lto_priv.0]
                0x0800e878                bf::game::tank_boss::_hide_damage_palette()
                0x0800f004                bf::game::objects::spawn_hero_bomb_without_sound(bn::fixed_point_t<12> const&, bn::camera_ptr const&) [clone .part.0]
                0x0800f78c                bf::game::tank_boss::_show_damage_palette(bn::sprite_palette_ptr const&, bn::camera_ptr const&)
                0x0800fe78                bf::game::hero_bomb::update(bf::game::intro const&, bf::game::boss_intro const&, bn::camera_ptr const&, bf::game::hero&, bf::game::enemies&, bf::game::enemy_bullets&, bf::game::background&, bf::game::rumble_manager&)
                0x08010a38                bf::game::objects::spawn_hero_weapon_without_sound(bn::fixed_point_t<12> const&, int, bn::camera_ptr const&) [clone .part.0]
                0x08010d28                bf::game::hero::update(bf::game::hero_bomb const&, bf::game::enemies const&, bf::game::enemy_bullets&, bf::game::objects&, bf::game::background&, bf::butano_background&, bn::camera_ptr&, bf::game::rumble_manager&)
                0x08013294                bf::game::intro::update(bf::butano_background const&)
                0x080142ec                bf::game::tank_boss::_update_footprint_sprites(bn::fixed_t<12>)
                0x0801475c                bf::game::tank_boss::_update_alive(bn::fixed_point_t<12> const&, bf::game::hero_bomb const&, bn::camera_ptr const&, bf::game::enemy_bullets&)
                0x08015018                bf::game::tank_boss::_update_dead(bn::fixed_point_t<12> const&, bn::camera_ptr const&, bf::game::background&, bf::game::rumble_manager&)
 .text          0x08015640     0x795c C:\Users\Linny\AppData\Local\Temp\cc3nsn9g.ltrans3.ltrans.o
                0x080156a4                bn::unique_ptr<bf::scene, bn::default_delete<bf::scene> >::reset()
                0x08015788                bn::ivector<bf::how_to_play::entry_type>::push_back(bf::how_to_play::entry_type&&)
                0x08015840                bf::(anonymous namespace)::_enable_blending(bn::ivector<bn::sprite_ptr>&) [clone .lto_priv.0]
                0x080158e4                bf::how_to_play::entry_type::setup(int, int)
                0x080159cc                bf::game::tank_boss::_update_base_sprites(bn::fixed_t<12>)
                0x08015bd0                bf::game::wizard_boss::_update_sprites(bn::fixed_point_t<12> const&)
                0x0801613c                bn::istring::_append(char const*, int)
                0x080161a8                bf::(anonymous namespace)::_write_sram(bf::status&) [clone .lto_priv.0]
                0x08016288                bf::game::tank_boss::_update_cannon_sprite(bn::fixed_t<12>, bn::fixed_point_t<12> const&)
                0x080164bc                bf::status::add_experience(int)
                0x0801651c                bf::game::tank_boss::_update_jelly_sprite(bn::fixed_t<12>, bn::fixed_point_t<12> const&)
                0x08016984                bf::game::tank_boss::_update_explosions()
                0x08016ecc                bf::game::(anonymous namespace)::_add_wizard_sprite(bn::camera_ptr const&, bn::ivector<bn::sprite_ptr>&) [clone .lto_priv.0]
                0x08019100                bf::how_to_play::entry_type::~entry_type() [clone .lto_priv.0]
 .text          0x0801cf9c     0x65b8 C:\Users\Linny\AppData\Local\Temp\cc3nsn9g.ltrans4.ltrans.o
                0x0801d45c                bn::audio_manager::(anonymous namespace)::static_data::~static_data() [clone .lto_priv.0]
                0x0801d45c                bn::audio_manager::(anonymous namespace)::static_data::~static_data() [clone .lto_priv.0]
                0x0801d460                bn::bg_blocks_manager::decrease_usages(int)
                0x0801d508                bn::bg_blocks_manager::(anonymous namespace)::static_data::~static_data() [clone .lto_priv.0]
                0x0801d508                bn::bg_blocks_manager::(anonymous namespace)::static_data::~static_data() [clone .lto_priv.0]
                0x0801d568                bn::camera_ptr::position() const
                0x0801d57c                bn::bgs_manager::fill_hblank_effect_regular_positions(int, bn::fixed_t<12> const*, unsigned short*)
                0x0801d61c                bn::audio_manager::stop_music()
                0x0801d680                bn::core::(anonymous namespace)::stop(bool) [clone .lto_priv.0]
                0x0801d948                bn::audio_manager::play_sound(int, bn::sound_item)
                0x0801da08                bn::sound_item::play() const
                0x0801e604                bn::bgs_manager::(anonymous namespace)::_insert_item(bn::bgs_manager::(anonymous namespace)::item_type&) [clone .lto_priv.0]
                0x0801e708                bn::bgs_manager::(anonymous namespace)::static_data::~static_data() [clone .lto_priv.0]
                0x0801e708                bn::bgs_manager::(anonymous namespace)::static_data::~static_data() [clone .lto_priv.0]
                0x0801f664                bn::optional<bn::regular_bg_tiles_ptr>::operator*() const [clone .part.0] [clone .lto_priv.0]
                0x0801f664                bn::optional<bn::affine_bg_map_ptr>::operator*() const [clone .part.0] [clone .lto_priv.0]
                0x0801f664                bn::optional<bn::affine_bg_tiles_ptr>::operator*() const [clone .part.0] [clone .lto_priv.0]
                0x0801f68c                bn::bgs_manager::create(bn::regular_bg_builder&&)
                0x0802348c                bn::music::set_volume(bn::fixed_t<12>)
 .text.startup  0x08023554     0x22f8 C:\Users\Linny\AppData\Local\Temp\cc3nsn9g.ltrans4.ltrans.o
                0x08023554                main
 .text          0x0802584c     0x6884 C:\Users\Linny\AppData\Local\Temp\cc3nsn9g.ltrans5.ltrans.o
                0x08025bd4                _bn::assert::show(char const*, char const*, char const*, int)
                0x08025c04                _bn::assert::show(char const*, char const*, char const*, int, bn::istring_base const&)
                0x08025c1c                bn::display_manager::(anonymous namespace)::_update_rect_windows_hw_boundaries(int) [clone .lto_priv.0]
                0x08025ca0                bn::rect_window::set_top(bn::fixed_t<12>)
                0x08025d04                bn::rect_window::set_boundaries(bn::fixed_point_t<12> const&, bn::fixed_point_t<12> const&)
                0x08025ddc                bn::rect_window::set_bottom(bn::fixed_t<12>)
                0x08025e40                bn::rect_window::set_camera(bn::camera_ptr const&)
                0x08025ed0                bn::display_manager::(anonymous namespace)::static_data::~static_data() [clone .lto_priv.0]
                0x08025ed0                bn::display_manager::(anonymous namespace)::static_data::~static_data() [clone .lto_priv.0]
                0x08025f1c                bn::rumble::set_enabled(bool)
                0x08025f5c                bn::hdma_manager::commit(bool)
                0x0802607c                operator new(unsigned int)
                0x080260ac                operator new[](unsigned int)
                0x080260dc                operator new(unsigned int, std::nothrow_t const&)
                0x0802610c                operator new[](unsigned int, std::nothrow_t const&)
                0x0802613c                operator delete(void*)
                0x08026148                operator delete[](void*)
                0x08026154                operator delete(void*, unsigned int)
                0x08026160                operator delete[](void*, unsigned int)
                0x0802616c                operator delete(void*, std::nothrow_t const&)
                0x08026178                operator delete[](void*, std::nothrow_t const&)
                0x08026184                bn::sprite_palette_ptr::sprite_palette_ptr(bn::sprite_palette_ptr const&)
                0x08026184                bn::sprite_palette_ptr::sprite_palette_ptr(bn::sprite_palette_ptr const&)
                0x080261a0                bn::palettes_bank::find_bpp_4(bn::span<bn::color const> const&, unsigned short)
                0x080262bc                bn::palettes_bank::update()
                0x080263f0                bn::palettes_bank::_on_global_effect_updated(bool)
                0x08026470                bn::palettes_manager::(anonymous namespace)::static_data::~static_data() [clone .lto_priv.0]
                0x08026470                bn::palettes_manager::(anonymous namespace)::static_data::~static_data() [clone .lto_priv.0]
                0x08026474                bn::sprite_affine_mats_manager::(anonymous namespace)::_update_flipped_identity(int) [clone .lto_priv.0]
                0x08026530                bool bn::sprite_affine_mats_manager::(anonymous namespace)::_sprite_double_size<32, 16>(int, int, int, int, int) [clone .lto_priv.0]
                0x080265b4                bool bn::sprite_affine_mats_manager::(anonymous namespace)::_sprite_double_size<16, 32>(int, int, int, int, int) [clone .lto_priv.0]
                0x08026638                bn::sprite_affine_mats_manager::(anonymous namespace)::static_data::~static_data() [clone .lto_priv.0]
                0x08026638                bn::sprite_affine_mats_manager::(anonymous namespace)::static_data::~static_data() [clone .lto_priv.0]
                0x08026674                bn::sprite_text_generator::generate(bn::fixed_t<12>, bn::fixed_t<12>, bn::string_view const&, bn::ivector<bn::sprite_ptr>&) const
                0x080266b4                bn::sprite_affine_mats_manager::decrease_usages(int)
                0x0802672c                bn::memory_manager::(anonymous namespace)::static_data::~static_data() [clone .lto_priv.0]
                0x0802672c                bn::memory_manager::(anonymous namespace)::static_data::~static_data() [clone .lto_priv.0]
                0x08026760                bn::sprite_tiles_manager::(anonymous namespace)::_insert_items_map_item(bn::tile const*, int) [clone .lto_priv.0]
                0x08026824                bn::sprite_affine_mats_manager::(anonymous namespace)::_new_item_index() [clone .lto_priv.0]
                0x080268c8                bn::sprite_affine_mat_ptr::create()
                0x08026978                bn::sprite_affine_mat_ptr::create(bn::affine_mat_attributes const&)
                0x08026a84                bn::sprite_tiles_manager::(anonymous namespace)::_insert_free_item(int, unsigned short*) [clone .lto_priv.0]
                0x08026b50                bn::sprite_tiles_manager::(anonymous namespace)::_erase_free_item(int) [clone .lto_priv.0]
                0x08026c34                bn::sprite_tiles_manager::(anonymous namespace)::_erase_to_commit_item(int, bn::sprite_tiles_manager::(anonymous namespace)::item_type&) [clone .lto_priv.0]
                0x08026d34                bn::hblank_effects_manager::create(void const*, int, int, bn::hblank_effects_manager::handler_type)
                0x08026d88                bn::isprite_animate_action::update()
                0x08026e40                bn::isprite_cached_animate_action::update()
                0x08026ee8                bn::keypad_manager::update()
                0x08026f90                bn::hblank_effects_manager::(anonymous namespace)::_is_uint32(bn::hblank_effects_manager::handler_type) [clone .lto_priv.0]
                0x08026ff4                bn::hblank_effects_manager::(anonymous namespace)::item_type::cleanup() [clone .lto_priv.0]
                0x0802713c                bn::hblank_effects_manager::decrease_usages(int) [clone .part.0]
                0x08027290                bn::hbe_ptr::~hbe_ptr()
                0x080272c4                bn::sprite_affine_mat_attributes_hbe_ptr::create(bn::sprite_affine_mat_ptr const&, bn::span<bn::affine_mat_attributes const> const&)
                0x080274c0                bn::hblank_effects_manager::(anonymous namespace)::_update_visible_item_index(int) [clone .lto_priv.0]
                0x08027574                bn::hblank_effects_manager::(anonymous namespace)::item_type::check_update() [clone .lto_priv.0]
                0x08029868                bn::palettes_bank::_erase_bpp_4_indexes_map_index(unsigned short)
                0x08029a48                bn::palettes_bank::decrease_usages(int)
                0x08029acc                bn::sprite_palette_ptr::~sprite_palette_ptr()
                0x08029acc                bn::sprite_palette_ptr::~sprite_palette_ptr()
                0x08029aec                bn::sprite_tiles_manager::(anonymous namespace)::_erase_items_map_item(bn::tile const*) [clone .lto_priv.0]
                0x08029d14                bn::sprite_tiles_ptr::create(bn::sprite_tiles_item const&)
                0x08029d90                bn::palettes_bank::log_status() const
                0x0802a160                bn::sprite_tiles_manager::log_status()
                0x0802a724                bn::(anonymous namespace)::_setup_builder(bn::sprite_text_generator const&, bn::sprite_builder&) [clone .lto_priv.0]
                0x0802a850                bn::sprite_tiles_manager::(anonymous namespace)::_find_impl(bn::tile const*, bn::compression_type, int) [clone .lto_priv.0]
                0x0802aaac                bn::(anonymous namespace)::_graphics_index(char, bn::utf8_characters_map_ref const&, char const*, int&) [clone .part.0] [clone .lto_priv.0]
                0x0802ac50                bn::sprite_text_generator::width(bn::string_view const&) const
                0x0802ae60                bn::bg_palette_ptr::create(bn::bg_palette_item const&)
                0x0802af9c                bn::sprite_palette_item::decompress(bn::span<bn::color>) const
                0x0802b104                bn::sprite_palette_ptr::find(bn::sprite_palette_item const&)
                0x0802b1f8                bn::sprite_palette_ptr::create(bn::sprite_palette_item const&)
                0x0802b23c                bn::sprite_palette_ptr::set_colors(bn::sprite_palette_item const&) [clone .part.0]
                0x0802b278                bn::sprite_tiles_manager::(anonymous namespace)::_hw_commit(bn::tile const*, bn::compression_type, int, int) [clone .lto_priv.0]
                0x0802b30c                bn::sprite_tiles_manager::(anonymous namespace)::_create_item(int, bn::tile const*, bn::compression_type, int, bool) [clone .lto_priv.0]
                0x0802b530                bn::sprite_tiles_manager::(anonymous namespace)::_create_impl(bn::tile const*, bn::compression_type, int) [clone .lto_priv.0]
                0x0802b730                bn::blending::set_transparency_alpha(bn::fixed_t<12>)
                0x0802b7c4                bn::blending::set_intensity_alpha(bn::fixed_t<12>)
                0x0802b858                bn::bgs_mosaic::set_stretch(bn::fixed_t<12>)
                0x0802b8c8                bn::palettes_bank::set_fade_intensity(int, bn::fixed_t<12>)
                0x0802b938                bn::palettes_bank::set_fade_intensity(bn::fixed_t<12>)
                0x0802b998                bn::palettes_bank::set_brightness(bn::fixed_t<12>)
                0x0802b9fc                bn::palettes_bank::set_contrast(bn::fixed_t<12>)
                0x0802ba60                bn::sprite_affine_mats_manager::set_rotation_angle(int, bn::fixed_t<12>)
                0x0802bba4                bn::sprite_affine_mats_manager::set_scale(int, bn::fixed_t<12>)
                0x0802bcf0                bn::tile* bn::(anonymous namespace)::_build_sprite_assert<(bn::sprite_size)1>(bn::sprite_text_generator const&, bn::sprite_palette_ptr const&, bn::fixed_point_t<12> const&, bn::ivector<bn::sprite_ptr>&) [clone .lto_priv.0]
                0x0802bedc                bn::tile* bn::(anonymous namespace)::_build_sprite_assert<(bn::sprite_size)2>(bn::sprite_text_generator const&, bn::sprite_palette_ptr const&, bn::fixed_point_t<12> const&, bn::ivector<bn::sprite_ptr>&) [clone .lto_priv.0]
 .text          0x0802c0d0     0x899c C:\Users\Linny\AppData\Local\Temp\cc3nsn9g.ltrans6.ltrans.o
                0x0802c0d0                bn::hw::link::(anonymous namespace)::_resetStateCallback() [clone .lto_priv.0]
                0x0802c9d4                bn::sprite_tiles_manager::update()
                0x0802cb8c                bn::sprite_ptr::set_y(bn::fixed_t<12>)
                0x0802cbd4                bn::sprite_ptr::set_visible(bool)
                0x0802cc38                bn::sprites_manager::(anonymous namespace)::_always_update_indexes_to_commit(bn::sprites_manager_item const&) [clone .lto_priv.0]
                0x0802cc80                bn::sprite_ptr::set_vertical_flip(bool)
                0x0802cd48                bn::sprites_manager::set_vertical_flip(void*, bool)
                0x0802ce0c                bn::sprites_manager::(anonymous namespace)::_update_item_dimensions(bn::sprites_manager_item&) [clone .lto_priv.0]
                0x0802cee4                bn::sprites_manager::set_horizontal_flip(void*, bool)
                0x0802cfac                bn::sprites_manager::reload_blending()
                0x0802d084                bn::ostringstream::ostringstream(bn::istring_base&)
                0x0802d084                bn::ostringstream::ostringstream(bn::istring_base&)
                0x0802d08c                bn::hw::link::disable()
                0x0802d110                bn::lc::LinkConnection::stop() [clone .constprop.0]
                0x0802d13c                bn::hw::palettes::hue_shift(bn::color const*, int, int, bn::color*)
                0x0802d288                VgmStop()
                0x0802d348                clr_grayscale
                0x0802d3bc                gbt_refresh_pattern_ptr.lto_priv.0
                0x0802d440                gbt_run_startup_commands.part.0.lto_priv.0
                0x0802d4d4                bn::hw::audio::(anonymous namespace)::_commit() [clone .lto_priv.0]
                0x0802dc34                bn::hw::audio::(anonymous namespace)::_vblank_handler() [clone .lto_priv.0]
                0x0802dcac                bn::best_fit_allocator::free(void*) [clone .constprop.0]
                0x0802ddc8                bn::bg_blocks_manager::(anonymous namespace)::items_list::insert_after(int, bn::bg_blocks_manager::(anonymous namespace)::item_type const&) [clone .constprop.0]
                0x0802e084                bn::hw::bgs::commit_data::commit_data() [clone .constprop.0] [clone .isra.0]
                0x0802e0e0                bn::bg_blocks_manager::(anonymous namespace)::items_list::items_list() [clone .constprop.0] [clone .isra.0]
                0x0802e12c                bn::sprite_affine_mats_manager::(anonymous namespace)::static_data::static_data() [clone .constprop.0] [clone .isra.0]
                0x0802e1d0                bn::sprite_tiles_manager::(anonymous namespace)::static_data::static_data() [clone .constprop.0] [clone .isra.0]
                0x0802e2fc                bn::display_manager::(anonymous namespace)::static_data::static_data() [clone .constprop.0] [clone .isra.0]
                0x0802e38c                bn::hdma_manager::(anonymous namespace)::static_data::static_data() [clone .constprop.0] [clone .isra.0]
                0x0802e3c0                bn::hblank_effects_manager::(anonymous namespace)::static_external_data::static_external_data() [clone .constprop.0] [clone .isra.0]
                0x0802e498                bn::core::(anonymous namespace)::static_data::static_data() [clone .constprop.0] [clone .isra.0]
                0x0802e500                bn::sprite_ptr::set_horizontal_flip(bool) [clone .isra.0]
                0x0802e5c8                bn::sprite_ptr::set_position(bn::fixed_point_t<12> const&) [clone .isra.0]
                0x0802e640                bn::sprite_builder::set_horizontal_flip(bool) [clone .isra.0]
                0x0802e6d4                bn::sprite_tiles_manager::decrease_usages(int)
                0x0802e808                bn::sprite_tiles_ptr::~sprite_tiles_ptr() [clone .isra.0]
                0x0802e818                bn::sprite_tiles_manager::(anonymous namespace)::_insert_to_commit_item(int, bn::sprite_tiles_manager::(anonymous namespace)::item_type&) [clone .part.0] [clone .lto_priv.0]
                0x0802e884                bn::hw::link::_timer_intr()
                0x0802e978                bn::hw::link::_serial_intr()
                0x0802eb30                bn::audio_manager::play_music(bn::music_item, bn::fixed_t<12>, bool) [clone .constprop.0]
                0x0802ebd0                bn::sprite_ptr::~sprite_ptr()
                0x0802ebd0                bn::sprite_ptr::~sprite_ptr()
                0x0802edbc                bn::hw::audio::(anonymous namespace)::_erase_sound_from_queue(unsigned short) [clone .lto_priv.0]
                0x0802ee54                bn::hw::audio::(anonymous namespace)::_check_sounds_queue() [clone .part.0] [clone .lto_priv.0]
                0x0802eef4                bn::hw::link::(anonymous namespace)::_sendDataCallback() [clone .lto_priv.0]
                0x0802efd8                bn::hw::link::(anonymous namespace)::_receiveResponseCallback(bn::lc::LinkResponse const&) [clone .lto_priv.0]
                0x0802f134                bn::sprite_ptr::set_blending_enabled(bool)
                0x0802f1d0                bn::igeneric_pool_base::_allocate()
                0x0802f218                bn::hw::audio::(anonymous namespace)::_add_sound_to_queue(int, unsigned short) [clone .lto_priv.0]
                0x0802f2e4                bn::sorted_sprites::sorter::insert(bn::sprites_manager_item&) [clone .constprop.0]
                0x0802f4ec                bn::sprites_manager::create(bn::fixed_point_t<12> const&, bn::sprite_shape_size const&, bn::sprite_tiles_ptr&&, bn::sprite_palette_ptr&&)
                0x0802f6bc                bn::sprites_manager::(anonymous namespace)::static_data::~static_data() [clone .lto_priv.0]
                0x0802f6bc                bn::sprites_manager::(anonymous namespace)::static_data::~static_data() [clone .lto_priv.0]
                0x0802f720                bn::hw::audio::(anonymous namespace)::static_data::~static_data() [clone .lto_priv.0]
                0x0802f720                bn::hw::audio::(anonymous namespace)::static_data::~static_data() [clone .lto_priv.0]
                0x0802f724                bn::hw::text::parse(unsigned int, bn::array<char, 32>&)
                0x0802f7c4                bn::iunordered_map<unsigned int, bn::audio_manager::sound_data_type, bn::identity_hasher, bn::equal_to<unsigned int> >::operator()(unsigned int, unsigned int const&) [clone .constprop.0]
                0x0802f8fc                bn::sprites_manager::(anonymous namespace)::_remove_affine_mat(bn::sprites_manager_item&) [clone .lto_priv.0]
                0x0802fa10                bn::sprite_ptr::set_palette(bn::sprite_palette_ptr const&)
                0x0802faf8                bn::sprite_builder::sprite_builder(bn::sprite_item const&, int)
                0x0802faf8                bn::sprite_builder::sprite_builder(bn::sprite_item const&, int)
                0x0802fb8c                bn::palettes_bank::set_colors(int, bn::span<bn::color const> const&) [clone .constprop.0]
                0x0802fc9c                bn::ivector<bn::bgs_manager::(anonymous namespace)::item_type*>::size_type bn::erase<bn::bgs_manager::(anonymous namespace)::item_type*>(bn::ivector<bn::bgs_manager::(anonymous namespace)::item_type*>&, bn::bgs_manager::(anonymous namespace)::item_type* const&) [clone .constprop.0] [clone .isra.0]
                0x0802fdd8                bn::ostringstream::append(char const*)
                0x0802fe7c                bn::istring::append(char const*) [clone .isra.0]
                0x0802ff1c                void _bn::assert::show_args<char [14], bn::fixed_t<12>, char [4], bn::fixed_t<12> >(char const*, char const*, char const*, int, char const (&) [14], bn::fixed_t<12> const&, char const (&) [4], bn::fixed_t<12> const&) [clone .constprop.0]
                0x0802ff80                bn::sprite_tiles_manager::vram(int)
                0x0802ffcc                bn::sprite_shape_size::width() const [clone .isra.0]
                0x08030098                bn::sprite_text_generator::sprite_text_generator(bn::sprite_font const&) [clone .isra.0]
                0x08030150                bn::best_fit_allocator::alloc(int) [clone .constprop.0]
                0x080302b4                malloc
                0x080302c0                bn::sprite_builder::sprite_builder(bn::sprite_shape_size const&, bn::sprite_tiles_ptr, bn::sprite_palette_ptr) [clone .isra.0]
                0x08030524                bn::sprite_shape_size::tiles_count(bn::bpp_mode) const [clone .isra.0]
                0x08030674                bn::sprites_manager::set_tiles(void*, bn::sprite_tiles_ptr const&)
                0x080308c8                bn::sprites_manager::set_tiles(void*, bn::sprite_tiles_ptr&&)
                0x08030b00                bn::istring::append(char const*, int) [clone .isra.0]
                0x08030bb0                void _bn::assert::show_args<char [20], char, char [9], bn::string_view, char [2]>(char const*, char const*, char const*, int, char const (&) [20], char const&, char const (&) [9], bn::string_view const&, char const (&) [2]) [clone .constprop.0]
                0x08030c54                bn::ostringstream::append(int)
                0x08030dc8                void _bn::assert::show_args<char [16], int, char [4], signed char>(char const*, char const*, char const*, int, char const (&) [16], int const&, char const (&) [4], signed char const&) [clone .constprop.0]
                0x08030ea4                bn::sprites_manager::(anonymous namespace)::_assign_affine_mat(bool, bn::sprites_manager_item&, bn::sprite_affine_mat_ptr&&) [clone .lto_priv.0]
                0x08030fec                bn::sprites_manager::set_new_affine_mat(void*, bn::affine_mat_attributes&)
                0x08031160                bn::sprites_manager::set_double_size_mode(void*, bn::sprite_double_size_mode) [clone .part.0]
                0x080311d4                void _bn::assert::show_args<char [52], unsigned short>(char const*, char const*, char const*, int, char const (&) [52], unsigned short const&) [clone .constprop.0]
                0x08031228                void _bn::assert::show_args<char [20], int, char [4], unsigned short>(char const*, char const*, char const*, int, char const (&) [20], int const&, char const (&) [4], unsigned short const&) [clone .constprop.0]
                0x080312f8                bn::palettes_bank::create_bpp_4(bn::span<bn::color const> const&, unsigned short, bool) [clone .constprop.0]
                0x08031428                bn::hw::show::error(bn::system_font const&, bn::string_view const&, bn::string_view const&, bn::string_view const&, int, bn::string_view const&, bn::string_view const&) [clone .constprop.0]
                0x080317f8                bn::sprite_tiles_manager::allocate(int, bn::bpp_mode) [clone .constprop.0]
                0x08031950                bn::ostringstream::append(unsigned int)
                0x08031a00                void _bn::assert::show_args<char [35], unsigned int>(char const*, char const*, char const*, int, char const (&) [35], unsigned int const&) [clone .constprop.0]
                0x08031a50                void _bn::assert::show_args<char [46], int, char [4], unsigned int>(char const*, char const*, char const*, int, char const (&) [46], int const&, char const (&) [4], unsigned int const&) [clone .constprop.0]
                0x08031ac0                bn::ostringstream::append(void const*)
                0x08031be8                void _bn::assert::show_args<char [44], bn::tile const*, char [4], bn::tile const*>(char const*, char const*, char const*, int, char const (&) [44], bn::tile const* const&, char const (&) [4], bn::tile const* const&) [clone .constprop.0]
                0x08031cd8                bn::sprite_tiles_manager::create(bn::span<bn::tile const> const&, bn::compression_type) [clone .isra.0]
                0x08031d24                bn::sprite_ptr::set_tiles(bn::sprite_tiles_item const&, int)
                0x08031e7c                bn::sprites_manager::create(bn::sprite_builder&&)
                0x080324b0                bn::sprite_ptr::create(bn::sprite_builder const&)
                0x08032620                bn::isprite_cached_animate_action::_assign_graphics_indexes(bn::sprite_tiles_item const&, bn::span<unsigned short const> const&) [clone .isra.0]
                0x08032760                void _bn::assert::show_args<char [32], char [15], unsigned short const*, char [16], int, char [17], int, char [34], bn::string_view>(char const*, char const*, char const*, int, char const (&) [32], char const (&) [15], unsigned short const* const&, char const (&) [16], int const&, char const (&) [17], int const&, char const (&) [34], bn::string_view const&) [clone .constprop.0]
                0x080327f8                void _bn::assert::show_args<char [30], char [13], unsigned short const*, char [14], int, char [15], int, char [17], int, char [34], bn::string_view>(char const*, char const*, char const*, int, char const (&) [30], char const (&) [13], unsigned short const* const&, char const (&) [14], int const&, char const (&) [15], int const&, char const (&) [17], int const&, char const (&) [34], bn::string_view const&) [clone .constprop.0]
                0x080328ac                bn::ostringstream::_append_fraction(unsigned int, int)
                0x080329c0                bn::hblank_effects_manager::(anonymous namespace)::_create(void const*, int, bn::hblank_effects_manager::handler_type, bool) [clone .constprop.0]
                0x08032c80                bool bn::(anonymous namespace)::_generate<false>(bn::sprite_text_generator const&, bn::fixed_point_t<12> const&, bn::string_view const&, bn::utf8_characters_map_ref const&, int, int, bool, bn::ivector<bn::sprite_ptr>&) [clone .isra.0]
                0x08033dd4                bn::palettes_bank::create_bpp_8(bn::span<bn::color const> const&, bn::compression_type, bool) [clone .constprop.0]
                0x08033fdc                bn::(anonymous namespace)::_create_impl(bn::sprite_palette_item const&, bool) [clone .constprop.0]
                0x08034054                bn::(anonymous namespace)::_create_impl(bn::bg_palette_item const&, bool) [clone .constprop.0]
                0x080340e4                bn::sprite_ptr::set_scale(bn::fixed_t<12>)
                0x080341a4                bn::sprite_builder::set_scale(bn::fixed_t<12>) [clone .isra.0]
                0x080342ac                bn::palettes_bank::set_grayscale_intensity(int, bn::fixed_t<12>) [clone .constprop.0]
                0x0803432c                bn::music_volume_to_action& bn::optional<bn::music_volume_to_action>::emplace<int const&, int>(int const&, int&&) [clone .constprop.0]
                0x080343e8                bn::sprite_builder::set_vertical_scale(bn::fixed_t<12>) [clone .constprop.0] [clone .isra.0]
                0x08034504                bn::sprite_ptr::set_vertical_scale(bn::fixed_t<12>) [clone .isra.0]
                0x0803467c                bn::sprite_builder::set_horizontal_scale(bn::fixed_t<12>) [clone .isra.0]
                0x0803483c                bn::sprite_ptr::set_horizontal_scale(bn::fixed_t<12>) [clone .isra.0]
                0x080349b4                bn::sprite_ptr::set_rotation_angle(bn::fixed_t<12>) [clone .isra.0]
 .text          0x08034a6c     0x7750 C:\Users\Linny\AppData\Local\Temp\cc3nsn9g.ltrans7.ltrans.o
                0x08034a6c                bn::sprite_affine_mats_manager::(anonymous namespace)::item_type::sprite_double_size(int, bn::sprite_shape_size const&) const [clone .isra.0]
                0x08034c18                bn::sprite_affine_mats_manager::sprite_double_size(int, bn::sprite_shape_size const&) [clone .isra.0]
                0x08034c64                bn::bg_palette_ptr::~bg_palette_ptr() [clone .isra.0]
                0x08034c7c                bn::palettes_bank::palettes_bank() [clone .isra.0]
                0x08034d50                bn::camera_ptr::~camera_ptr() [clone .isra.0]
                0x08034d7c                bf::game::(anonymous namespace)::_set_visible(bool, bn::ivector<bn::sprite_ptr>&) [clone .isra.0]
                0x08034e1c                bn::sprite_affine_mat_ptr::~sprite_affine_mat_ptr() [clone .isra.0]
                0x08034e94                bn::sprite_affine_mat_attributes_hbe_ptr::~sprite_affine_mat_attributes_hbe_ptr() [clone .isra.0]
                0x08034f4c                bn::iunordered_map<unsigned short, short, bn::identity_hasher, bn::equal_to<unsigned short> >::insert_or_assign_hash(unsigned int, std::pair<unsigned short const, short>&&) [clone .isra.0]
                0x0803505c                bn::palettes_bank::colors_hash(bn::span<bn::color const> const&) [clone .isra.0]
                0x080350a0                bn::regular_bg_ptr::~regular_bg_ptr() [clone .isra.0]
                0x0803518c                bn::string_view::string_view(char const*) [clone .isra.0]
                0x080351cc                bn::regular_bg_ptr::palette() const [clone .isra.0]
                0x08035220                bf::intro::intro(bn::sprite_text_generator&, bf::butano_background&) [clone .isra.0]
                0x080355b8                bn::isprite_animate_action::_assign_graphics_indexes(bn::span<unsigned short const> const&) [clone .isra.0]
                0x08035638                bf::status::status() [clone .isra.0]
                0x08035704                bn::sprite_shape_size::height() const [clone .isra.0]
                0x080357d4                bn::sprite_palette_ptr::set_fade_intensity(bn::fixed_t<12>) [clone .isra.0]
                0x08035848                bf::how_to_play::entry_type::entry_type(bf::how_to_play::entry_type&&) [clone .isra.0]
                0x08035b1c                bf::how_to_play::how_to_play(bf::scene_type, bf::status&, bn::sprite_text_generator&, bf::butano_background&) [clone .isra.0]
                0x08036998                bf::game::wizard_boss::wizard_boss(bn::fixed_point_t<12> const&, bn::sprite_palette_ptr const&, bn::camera_ptr const&) [clone .isra.0]
                0x0803782c                bn::sprite_move_to_action& bn::optional<bn::sprite_move_to_action>::emplace<bn::sprite_ptr&, int const&, bn::fixed_t<12>, bn::fixed_t<12> >(bn::sprite_ptr&, int const&, bn::fixed_t<12>&&, bn::fixed_t<12>&&) [clone .isra.0]
                0x080378e8                bf::game::tank_boss::tank_boss(bn::fixed_point_t<12> const&, bn::sprite_palette_ptr const&, bn::camera_ptr const&) [clone .isra.0]
                0x08038d84                bf::game::object_message::object_message(bn::fixed_point_t<12> const&, int, bn::camera_ptr const&) [clone .isra.0]
                0x08038f44                bf::game::gigabat_boss::gigabat_boss(bn::fixed_point_t<12> const&, bn::sprite_palette_ptr const&, bn::camera_ptr const&) [clone .isra.0]
                0x0803987c                bf::game::explosion::explosion(bn::sprite_item const&, bn::fixed_point_t<12> const&, int, int, bool, bn::camera_ptr const&) [clone .isra.0]
                0x0803a2f8                bf::game::game::game(bf::status&, bn::sprite_text_generator&, bf::butano_background&) [clone .isra.0]
 .text.startup  0x0803c1bc      0x318 C:\Users\Linny\AppData\Local\Temp\cc3nsn9g.ltrans7.ltrans.o
 .text.__libc_init_array
                0x0803c4d4       0x50 bn_hw_common.bn_noflto.o
                0x0803c4d4                __libc_init_array
 .text.__aeabi_atexit
                0x0803c524        0x4 bn_hw_common.bn_noflto.o
                0x0803c524                __aeabi_atexit
 .text.__cxa_pure_virtual
                0x0803c528       0x24 bn_hw_common.bn_noflto.o
                0x0803c528                __cxa_pure_virtual
 .text._ZN3_bn6assert9show_argsIA40_cEEvPKcS4_S4_iRKT_
                0x0803c54c       0x48 bn_hw_common.bn_noflto.o
                0x0803c54c                void _bn::assert::show_args<char [40]>(char const*, char const*, char const*, int, char const (&) [40])
 .text.__aeabi_idiv0
                0x0803c594       0x24 bn_hw_common.bn_noflto.o
                0x0803c594                __aeabi_idiv0
 .text._ZN2bn2hw4gpio4initEv
                0x0803c5b8        0x8 bn_hw_gpio.bn_noflto.o
                0x0803c5b8                bn::hw::gpio::init()
 .text._ZN2bn2hw4sram4initEv
                0x0803c5c0       0x18 bn_hw_sram.bn_noflto.o
                0x0803c5c0                bn::hw::sram::init()
 .text          0x0803c5d8       0x1c bn_hw_core.o
                0x0803c5d8                bn_hw_soft_reset
                0x0803c5f0                bn_hw_hard_reset
 .text.Stop     0x0803c5f4        0x4 tonc_bios.o
                0x0803c5f4                Stop
 .text.VBlankIntrWait
                0x0803c5f8        0x4 tonc_bios.o
                0x0803c5f8                VBlankIntrWait
 .text.memset16
                0x0803c5fc       0x3c tonc_memset.o
                0x0803c5fc                memset16
 .text          0x0803c638      0x26c posprintf.o
                0x0803c63c                posprintf
 .text          0x0803c8a4      0x314 mm_effect.o
                0x0803c8a4                mmResetEffects
                0x0803c8d0                mmEffect
                0x0803c8e6                mmEffectEx
                0x0803c9e6                mmEffectActive
                0x0803ca1a                mmEffectVolume
                0x0803ca36                mmEffectPanning
                0x0803ca4a                mmEffectRate
                0x0803ca5e                mmEffectCancel
                0x0803ca98                mmEffectRelease
                0x0803cabe                mmEffectScaleRate
                0x0803cad2                mmSetEffectsVolume
                0x0803cae0                mmEffectCancelAll
                0x0803cb20                mmUpdateEffects
 .text          0x0803cbb8       0x14 mm_main.o
                0x0803cbb8                mpp_call_r7
                0x0803cbba                mpp_call_r1
                0x0803cbbc                mpp_call_r2
                0x0803cbbe                mpp_call_r3
                0x0803cbc0                mmSetEventHandler
 .text          0x0803cbcc     0x1570 mm_mas.o
                0x0803cc40                mmStart
                0x0803cc60                mmJingle
                0x0803cc66                mmPlayModule
                0x0803cd30                mmPause
                0x0803cd4c                mmResume
                0x0803cd5c                mmActive
                0x0803cd62                mmActiveSub
                0x0803cd68                mmSetModuleVolume
                0x0803cd78                mmSetJingleVolume
                0x0803cdb4                mmGetPositionTick
                0x0803cdba                mmGetPositionRow
                0x0803cdc0                mmGetPosition
                0x0803cdc6                mmPosition
                0x0803cde0                mmSetModuleTempo
                0x0803ce12                mmSetModulePitch
                0x0803ce54                mmStop
                0x0803cf1a                mppUpdateSub
                0x0803d076                mpp_Process_VolumeCommand
                0x0803d2ae                mpp_Process_Effect
                0x0803d9fc                ST3_FREQTABLE
                0x0803de1c                IT_PitchTable
 .text          0x0803e13c      0x12c mm_main_gba.o
                0x0803e13c                mmInit
                0x0803e190                mmSetVBlankHandler
                0x0803e196                mmFrame
 .text          0x0803e268      0x1e0 mm_mixer_gba.o
                0x0803e268                mmMixerSetSource
                0x0803e27c                mmMixerSetRead
                0x0803e28a                mmMixerSetFreq
                0x0803e29a                mmMixerMulFreq
                0x0803e2ae                mmMixerStopChannel
                0x0803e2c0                mmMixerChannelActive
                0x0803e2d2                mmMixerSetVolume
                0x0803e2e0                mmMixerSetPan
                0x0803e2ee                mmMixerInit
 .text          0x0803e448       0x3c C:/devkitPro/devkitARM/bin/../lib/gcc/arm-none-eabi/14.2.0/thumb\libgcc.a(_call_via_rX.o)
                0x0803e448                _call_via_r0
                0x0803e44c                _call_via_r1
                0x0803e450                _call_via_r2
                0x0803e454                _call_via_r3
                0x0803e458                _call_via_r4
                0x0803e45c                _call_via_r5
                0x0803e460                _call_via_r6
                0x0803e464                _call_via_r7
                0x0803e468                _call_via_r8
                0x0803e46c                _call_via_r9
                0x0803e470                _call_via_sl
                0x0803e474                _call_via_fp
                0x0803e478                _call_via_ip
                0x0803e47c                _call_via_sp
                0x0803e480                _call_via_lr
 *fill*         0x0803e484        0x4 ff
 .text.__stub   0x0803e488      0x130 linker stubs
 *(.gnu.linkonce.t.*)
 *(.text.*personality*)
 *(.gnu.warning)
 *(.glue_7t)
 .glue_7t       0x0803e618        0x0 linker stubs
 *(.glue_7)
 .glue_7        0x0803e618        0x0 linker stubs
 *(.vfp11_veneer)
 .vfp11_veneer  0x0803e618        0x0 linker stubs
                0x0803e618                        . = ALIGN (0x4)
                0x0803e618                        __text_end = .

.v4_bx          0x0803e618        0x0
 .v4_bx         0x0803e618        0x0 linker stubs

.iplt           0x0803e618        0x0
 .iplt          0x0803e618        0x0 C:/devkitPro/devkitARM/bin/../lib/gcc/arm-none-eabi/14.2.0/../../../../arm-none-eabi/lib/thumb/gba_crt0.o

.fini           0x0803e618        0xc
 *(.fini)
 .fini          0x0803e618        0x4 C:/devkitPro/devkitARM/bin/../lib/gcc/arm-none-eabi/14.2.0/thumb/crti.o
                0x0803e618                _fini
 .fini          0x0803e61c        0x8 C:/devkitPro/devkitARM/bin/../lib/gcc/arm-none-eabi/14.2.0/thumb/crtn.o
                0x0803e624                        . = ALIGN (0x4)

.rodata         0x0803e624   0x308ae8
 *(.rodata)
 .rodata        0x0803e624     0x1ba0 big_font_bn_gfx.o
                0x0803e624                big_font_bn_gfxTiles
                0x080401a4                big_font_bn_gfxPal
 .rodata        0x080401c4      0xe20 boss_intro_bn_gfx.o
                0x080401c4                boss_intro_bn_gfxTiles
                0x08040fc4                boss_intro_bn_gfxPal
 .rodata        0x08040fe4     0x1220 brightness_bn_gfx.o
                0x08040fe4                brightness_bn_gfxTiles
                0x080421e4                brightness_bn_gfxPal
 .rodata        0x08042204      0xc60 butano_background_bn_gfx.o
                0x08042204                butano_background_bn_gfxTiles
                0x08042644                butano_background_bn_gfxMap
                0x08042e44                butano_background_bn_gfxPal
 .rodata        0x08042e64     0x1020 butano_big_silhouette_bn_gfx.o
                0x08042e64                butano_big_silhouette_bn_gfxTiles
                0x08043e64                butano_big_silhouette_bn_gfxPal
 .rodata        0x08043e84     0x20c0 butano_big_sprite_bn_gfx.o
                0x08043e84                butano_big_sprite_bn_gfxTiles
                0x08045e84                butano_big_sprite_bn_gfxPal
 .rodata        0x08045f44      0x820 butano_fire_bn_gfx.o
                0x08045f44                butano_fire_bn_gfxTiles
                0x08046744                butano_fire_bn_gfxPal
 .rodata        0x08046764      0x100 butano_flash_palette_bn_gfx.o
                0x08046764                butano_flash_palette_bn_gfxTiles
                0x080467a4                butano_flash_palette_bn_gfxPal
 .rodata        0x08046864      0xc20 butano_font_bn_gfx.o
                0x08046864                butano_font_bn_gfxTiles
                0x08047464                butano_font_bn_gfxPal
 .rodata        0x08047484     0xce20 butano_huge_bn_gfx.o
                0x08047484                butano_huge_bn_gfxTiles
                0x080530c4                butano_huge_bn_gfxMap
                0x080540c4                butano_huge_bn_gfxPal
 .rodata        0x080542a4     0x15e0 clouds_bn_gfx.o
                0x080542a4                clouds_bn_gfxTiles
                0x08055064                clouds_bn_gfxMap
                0x08055864                clouds_bn_gfxPal
 .rodata        0x08055884      0x120 enemy_bullets_bn_gfx.o
                0x08055884                enemy_bullets_bn_gfxTiles
                0x08055984                enemy_bullets_bn_gfxPal
 .rodata        0x080559a4    0x10020 enemy_explosion_bn_gfx.o
                0x080559a4                enemy_explosion_bn_gfxTiles
                0x080659a4                enemy_explosion_bn_gfxPal
 .rodata        0x080659c4       0xa0 experience_bar_bn_gfx.o
                0x080659c4                experience_bar_bn_gfxTiles
                0x08065a44                experience_bar_bn_gfxPal
 .rodata        0x08065a64       0xa0 experience_frame_back_bn_gfx.o
                0x08065a64                experience_frame_back_bn_gfxTiles
                0x08065ae4                experience_frame_back_bn_gfxPal
 .rodata        0x08065b04      0x120 experience_frame_front_bn_gfx.o
                0x08065b04                experience_frame_front_bn_gfxTiles
                0x08065c04                experience_frame_front_bn_gfxPal
 .rodata        0x08065c24      0xe20 fighter_font_bn_gfx.o
                0x08065c24                fighter_font_bn_gfxTiles
                0x08066a24                fighter_font_bn_gfxPal
 .rodata        0x08066a44       0x40 flash_palette_bn_gfx.o
                0x08066a44                flash_palette_bn_gfxTiles
                0x08066a64                flash_palette_bn_gfxPal
 .rodata        0x08066a84      0x220 gem_bn_gfx.o
                0x08066a84                gem_bn_gfxTiles
                0x08066c84                gem_bn_gfxPal
 .rodata        0x08066ca4     0xf020 gigabat_bn_gfx.o
                0x08066ca4                gigabat_bn_gfxTiles
                0x08075ca4                gigabat_bn_gfxPal
 .rodata        0x08075cc4      0x420 gigabat_shadow_bn_gfx.o
                0x08075cc4                gigabat_shadow_bn_gfxTiles
                0x080760c4                gigabat_shadow_bn_gfxPal
 .rodata        0x080760e4     0x1020 hero_body_flying_bn_gfx.o
                0x080760e4                hero_body_flying_bn_gfxTiles
                0x080770e4                hero_body_flying_bn_gfxPal
 .rodata        0x08077104     0x1020 hero_body_walking_bn_gfx.o
                0x08077104                hero_body_walking_bn_gfxTiles
                0x08078104                hero_body_walking_bn_gfxPal
 .rodata        0x08078124      0xa20 hero_bomb_bn_gfx.o
                0x08078124                hero_bomb_bn_gfxTiles
                0x08078324                hero_bomb_bn_gfxMap
                0x08078b24                hero_bomb_bn_gfxPal
 .rodata        0x08078b44       0xa0 hero_bomb_icon_bn_gfx.o
                0x08078b44                hero_bomb_icon_bn_gfxTiles
                0x08078bc4                hero_bomb_icon_bn_gfxPal
 .rodata        0x08078be4      0x220 hero_bomb_mini_bn_gfx.o
                0x08078be4                hero_bomb_mini_bn_gfxTiles
                0x08078de4                hero_bomb_mini_bn_gfxPal
 .rodata        0x08078e04     0x1220 hero_bullets_bn_gfx.o
                0x08078e04                hero_bullets_bn_gfxTiles
                0x0807a004                hero_bullets_bn_gfxPal
 .rodata        0x0807a024     0xc020 hero_death_bn_gfx.o
                0x0807a024                hero_death_bn_gfxTiles
                0x08086024                hero_death_bn_gfxPal
 .rodata        0x08086044      0x220 hero_head_bn_gfx.o
                0x08086044                hero_head_bn_gfxTiles
                0x08086244                hero_head_bn_gfxPal
 .rodata        0x08086264      0x820 hero_shield_bn_gfx.o
                0x08086264                hero_shield_bn_gfxTiles
                0x08086a64                hero_shield_bn_gfxPal
 .rodata        0x08086a84      0x120 hero_weapon_big_2_bn_gfx.o
                0x08086a84                hero_weapon_big_2_bn_gfxTiles
                0x08086b84                hero_weapon_big_2_bn_gfxPal
 .rodata        0x08086ba4      0x420 hero_weapon_big_3_bn_gfx.o
                0x08086ba4                hero_weapon_big_3_bn_gfxTiles
                0x08086fa4                hero_weapon_big_3_bn_gfxPal
 .rodata        0x08086fc4      0x120 hero_weapon_big_4_bn_gfx.o
                0x08086fc4                hero_weapon_big_4_bn_gfxTiles
                0x080870c4                hero_weapon_big_4_bn_gfxPal
 .rodata        0x080870e4      0x120 hero_weapon_big_5_bn_gfx.o
                0x080870e4                hero_weapon_big_5_bn_gfxTiles
                0x080871e4                hero_weapon_big_5_bn_gfxPal
 .rodata        0x08087204      0x120 hero_weapon_big_6_bn_gfx.o
                0x08087204                hero_weapon_big_6_bn_gfxTiles
                0x08087304                hero_weapon_big_6_bn_gfxPal
 .rodata        0x08087324      0x220 hero_weapon_big_7_bn_gfx.o
                0x08087324                hero_weapon_big_7_bn_gfxTiles
                0x08087524                hero_weapon_big_7_bn_gfxPal
 .rodata        0x08087544      0x420 hero_weapon_big_8_bn_gfx.o
                0x08087544                hero_weapon_big_8_bn_gfxTiles
                0x08087944                hero_weapon_big_8_bn_gfxPal
 .rodata        0x08087964      0x120 hero_weapon_big_9_bn_gfx.o
                0x08087964                hero_weapon_big_9_bn_gfxTiles
                0x08087a64                hero_weapon_big_9_bn_gfxPal
 .rodata        0x08087a84      0x4a0 hero_weapons_bn_gfx.o
                0x08087a84                hero_weapons_bn_gfxTiles
                0x08087f04                hero_weapons_bn_gfxPal
 .rodata        0x08087f24      0xe20 mini_explosion_bn_gfx.o
                0x08087f24                mini_explosion_bn_gfxTiles
                0x08088d24                mini_explosion_bn_gfxPal
 .rodata        0x08088d44      0xa20 mini_explosion_2_bn_gfx.o
                0x08088d44                mini_explosion_2_bn_gfxTiles
                0x08089744                mini_explosion_2_bn_gfxPal
 .rodata        0x08089764     0x1f00 mountain_clouds_bn_gfx.o
                0x08089764                mountain_clouds_bn_gfxTiles
                0x0808a644                mountain_clouds_bn_gfxMap
                0x0808b644                mountain_clouds_bn_gfxPal
 .rodata        0x0808b664      0xf20 object_messages_bn_gfx.o
                0x0808b664                object_messages_bn_gfxTiles
                0x0808c564                object_messages_bn_gfxPal
 .rodata        0x0808c584     0x1720 pause_bn_gfx.o
                0x0808c584                pause_bn_gfxTiles
                0x0808d484                pause_bn_gfxMap
                0x0808dc84                pause_bn_gfxPal
 .rodata        0x0808dca4      0xde0 small_font_bn_gfx.o
                0x0808dca4                small_font_bn_gfxTiles
                0x0808ea64                small_font_bn_gfxPal
 .rodata        0x0808ea84     0x8140 stage_1_bn_gfx.o
                0x0808ea84                stage_1_bn_gfxTiles
                0x08094b04                stage_1_bn_gfxMap
                0x08096b04                stage_1_bn_gfxPal
 .rodata        0x08096bc4      0x420 stage_1_animals_bn_gfx.o
                0x08096bc4                stage_1_animals_bn_gfxTiles
                0x08096fc4                stage_1_animals_bn_gfxPal
 .rodata        0x08096fe4      0x420 stage_1_characters_1_bn_gfx.o
                0x08096fe4                stage_1_characters_1_bn_gfxTiles
                0x080973e4                stage_1_characters_1_bn_gfxPal
 .rodata        0x08097404     0x1020 stage_1_characters_1_team_bn_gfx.o
                0x08097404                stage_1_characters_1_team_bn_gfxTiles
                0x08098404                stage_1_characters_1_team_bn_gfxPal
 .rodata        0x08098424      0x420 stage_1_characters_2_bn_gfx.o
                0x08098424                stage_1_characters_2_bn_gfxTiles
                0x08098824                stage_1_characters_2_bn_gfxPal
 .rodata        0x08098844     0x1020 stage_1_intro_bn_gfx.o
                0x08098844                stage_1_intro_bn_gfxTiles
                0x08099844                stage_1_intro_bn_gfxPal
 .rodata        0x08099864       0x40 stage_1_intro_alt_bn_gfx.o
                0x08099864                stage_1_intro_alt_bn_gfxTiles
                0x08099884                stage_1_intro_alt_bn_gfxPal
 .rodata        0x080998a4      0x220 stage_1_monsters_1_bn_gfx.o
                0x080998a4                stage_1_monsters_1_bn_gfxTiles
                0x08099aa4                stage_1_monsters_1_bn_gfxPal
 .rodata        0x08099ac4      0x220 stage_1_monsters_2_bn_gfx.o
                0x08099ac4                stage_1_monsters_2_bn_gfxTiles
                0x08099cc4                stage_1_monsters_2_bn_gfxPal
 .rodata        0x08099ce4     0x5b00 stage_2_bn_gfx.o
                0x08099ce4                stage_2_bn_gfxTiles
                0x0809d6a4                stage_2_bn_gfxMap
                0x0809f6a4                stage_2_bn_gfxPal
 .rodata        0x0809f7e4     0x1920 stage_2_characters_1_bn_gfx.o
                0x0809f7e4                stage_2_characters_1_bn_gfxTiles
                0x080a10e4                stage_2_characters_1_bn_gfxPal
 .rodata        0x080a1104     0x2020 stage_2_characters_2_bn_gfx.o
                0x080a1104                stage_2_characters_2_bn_gfxTiles
                0x080a3104                stage_2_characters_2_bn_gfxPal
 .rodata        0x080a3124     0x1020 stage_2_intro_bn_gfx.o
                0x080a3124                stage_2_intro_bn_gfxTiles
                0x080a4124                stage_2_intro_bn_gfxPal
 .rodata        0x080a4144       0x40 stage_2_intro_alt_bn_gfx.o
                0x080a4144                stage_2_intro_alt_bn_gfxTiles
                0x080a4164                stage_2_intro_alt_bn_gfxPal
 .rodata        0x080a4184     0x2020 stage_2_monsters_1_bn_gfx.o
                0x080a4184                stage_2_monsters_1_bn_gfxTiles
                0x080a6184                stage_2_monsters_1_bn_gfxPal
 .rodata        0x080a61a4     0x2020 stage_2_monsters_2_bn_gfx.o
                0x080a61a4                stage_2_monsters_2_bn_gfxTiles
                0x080a81a4                stage_2_monsters_2_bn_gfxPal
 .rodata        0x080a81c4     0x1020 stage_2_robot_bn_gfx.o
                0x080a81c4                stage_2_robot_bn_gfxTiles
                0x080a91c4                stage_2_robot_bn_gfxPal
 .rodata        0x080a91e4     0x59a0 stage_3_bn_gfx.o
                0x080a91e4                stage_3_bn_gfxTiles
                0x080acb04                stage_3_bn_gfxMap
                0x080aeb04                stage_3_bn_gfxPal
 .rodata        0x080aeb84     0x1820 stage_3_blonde_bn_gfx.o
                0x080aeb84                stage_3_blonde_bn_gfxTiles
                0x080b0384                stage_3_blonde_bn_gfxPal
 .rodata        0x080b03a4     0x8020 stage_3_characters_1_bn_gfx.o
                0x080b03a4                stage_3_characters_1_bn_gfxTiles
                0x080b83a4                stage_3_characters_1_bn_gfxPal
 .rodata        0x080b83c4     0x6020 stage_3_characters_2_bn_gfx.o
                0x080b83c4                stage_3_characters_2_bn_gfxTiles
                0x080be3c4                stage_3_characters_2_bn_gfxPal
 .rodata        0x080be3e4     0x1820 stage_3_dragon_man_bn_gfx.o
                0x080be3e4                stage_3_dragon_man_bn_gfxTiles
                0x080bfbe4                stage_3_dragon_man_bn_gfxPal
 .rodata        0x080bfc04     0x1020 stage_3_intro_bn_gfx.o
                0x080bfc04                stage_3_intro_bn_gfxTiles
                0x080c0c04                stage_3_intro_bn_gfxPal
 .rodata        0x080c0c24       0x40 stage_3_intro_alt_bn_gfx.o
                0x080c0c24                stage_3_intro_alt_bn_gfxTiles
                0x080c0c44                stage_3_intro_alt_bn_gfxPal
 .rodata        0x080c0c64     0x4020 stage_3_monsters_1_bn_gfx.o
                0x080c0c64                stage_3_monsters_1_bn_gfxTiles
                0x080c4c64                stage_3_monsters_1_bn_gfxPal
 .rodata        0x080c4c84     0x3020 stage_3_monsters_2_bn_gfx.o
                0x080c4c84                stage_3_monsters_2_bn_gfxTiles
                0x080c7c84                stage_3_monsters_2_bn_gfxPal
 .rodata        0x080c7ca4     0x3bc0 stage_4_bn_gfx.o
                0x080c7ca4                stage_4_bn_gfxTiles
                0x080c97e4                stage_4_bn_gfxMap
                0x080cb7e4                stage_4_bn_gfxPal
 .rodata        0x080cb864      0x820 stage_4_brain_bn_gfx.o
                0x080cb864                stage_4_brain_bn_gfxTiles
                0x080cc064                stage_4_brain_bn_gfxPal
 .rodata        0x080cc084     0x1820 stage_4_enemies_1_bn_gfx.o
                0x080cc084                stage_4_enemies_1_bn_gfxTiles
                0x080cd884                stage_4_enemies_1_bn_gfxPal
 .rodata        0x080cd8a4     0x1020 stage_4_enemies_2_bn_gfx.o
                0x080cd8a4                stage_4_enemies_2_bn_gfxTiles
                0x080ce8a4                stage_4_enemies_2_bn_gfxPal
 .rodata        0x080ce8c4      0x820 stage_4_enemies_3_1_bn_gfx.o
                0x080ce8c4                stage_4_enemies_3_1_bn_gfxTiles
                0x080cf0c4                stage_4_enemies_3_1_bn_gfxPal
 .rodata        0x080cf0e4      0x220 stage_4_enemies_3_2_bn_gfx.o
                0x080cf0e4                stage_4_enemies_3_2_bn_gfxTiles
                0x080cf2e4                stage_4_enemies_3_2_bn_gfxPal
 .rodata        0x080cf304      0x620 stage_4_enemies_4_bn_gfx.o
                0x080cf304                stage_4_enemies_4_bn_gfxTiles
                0x080cf904                stage_4_enemies_4_bn_gfxPal
 .rodata        0x080cf924     0x1020 stage_4_intro_bn_gfx.o
                0x080cf924                stage_4_intro_bn_gfxTiles
                0x080d0924                stage_4_intro_bn_gfxPal
 .rodata        0x080d0944       0x40 stage_4_intro_alt_bn_gfx.o
                0x080d0944                stage_4_intro_alt_bn_gfxTiles
                0x080d0964                stage_4_intro_alt_bn_gfxPal
 .rodata        0x080d0984     0x1020 stage_4_meteors_big_bn_gfx.o
                0x080d0984                stage_4_meteors_big_bn_gfxTiles
                0x080d1984                stage_4_meteors_big_bn_gfxPal
 .rodata        0x080d19a4      0x620 stage_4_meteors_small_bn_gfx.o
                0x080d19a4                stage_4_meteors_small_bn_gfxTiles
                0x080d1fa4                stage_4_meteors_small_bn_gfxPal
 .rodata        0x080d1fc4      0x220 stage_4_octopus_bn_gfx.o
                0x080d1fc4                stage_4_octopus_bn_gfxTiles
                0x080d21c4                stage_4_octopus_bn_gfxPal
 .rodata        0x080d21e4     0x2c00 stars_bn_gfx.o
                0x080d21e4                stars_bn_gfxTiles
                0x080d3dc4                stars_bn_gfxMap
                0x080d4dc4                stars_bn_gfxPal
 .rodata        0x080d4de4     0x1220 tank_base_bn_gfx.o
                0x080d4de4                tank_base_bn_gfxTiles
                0x080d5fe4                tank_base_bn_gfxPal
 .rodata        0x080d6004      0x820 tank_cannon_bn_gfx.o
                0x080d6004                tank_cannon_bn_gfxTiles
                0x080d6804                tank_cannon_bn_gfxPal
 .rodata        0x080d6824      0xa20 tank_extras_bn_gfx.o
                0x080d6824                tank_extras_bn_gfxTiles
                0x080d7224                tank_extras_bn_gfxPal
 .rodata        0x080d7244      0x220 tank_jelly_bn_gfx.o
                0x080d7244                tank_jelly_bn_gfxTiles
                0x080d7444                tank_jelly_bn_gfxPal
 .rodata        0x080d7464     0xe020 wizard_bn_gfx.o
                0x080d7464                wizard_bn_gfxTiles
                0x080e5464                wizard_bn_gfxPal
 .rodata        0x080e5484     0x8020 wizard_aura_bn_gfx.o
                0x080e5484                wizard_aura_bn_gfxTiles
                0x080ed484                wizard_aura_bn_gfxPal
 .rodata        0x080ed4a4     0x26c8 C:\Users\Linny\AppData\Local\Temp\cc3nsn9g.ltrans0.ltrans.o
                0x080ed5b8                bn::sprite_items::butano_big_sprite
                0x080ed5d4                bn::sprite_items::butano_big_silhouette
                0x080ed5f8                vtable for bf::credits
                0x080ed60c                vtable for bf::ending
                0x080ed650                bn::sound_items::power_up_1
                0x080ed654                bn::sprite_items::gem
                0x080ed670                bn::sound_items::cure
                0x080ed674                bn::sprite_items::hero_bullets
                0x080ed690                bn::sprite_items::hero_bomb_icon
                0x080ed6b0                vtable for bf::game::game
                0x080ed6c4                bn::sprite_items::mini_explosion
                0x080ed6e0                bn::sound_items::explosion_3
                0x080ed6e4                bn::sound_items::explosion_1
                0x080ed704                bn::sound_items::explosion_2
                0x080ed708                bn::sound_items::flame_thrower
                0x080ed70c                vtable for bf::game::butano_boss
                0x080ed73c                vtable for bf::game::boss
                0x080ed76c                _ZN2bn12_GLOBAL__N_1L12sin_lut_implE.lto_priv.0
                0x080ee770                _ZN2bf4game12_GLOBAL__N_1L14_level8_eventsE.lto_priv.0
                0x080ee890                _ZN2bf4game12_GLOBAL__N_1L14_level7_eventsE.lto_priv.0
                0x080ee998                _ZN2bf4game12_GLOBAL__N_1L14_level6_eventsE.lto_priv.0
                0x080eea88                _ZN2bf4game12_GLOBAL__N_1L14_level5_eventsE.lto_priv.0
                0x080eeb48                _ZN2bf4game12_GLOBAL__N_1L14_level4_eventsE.lto_priv.0
                0x080eebd8                _ZN2bf4game12_GLOBAL__N_1L14_level3_eventsE.lto_priv.0
                0x080eec50                _ZN2bf4game12_GLOBAL__N_1L14_level2_eventsE.lto_priv.0
                0x080eecb0                _ZN2bf4game12_GLOBAL__N_1L14_level1_eventsE.lto_priv.0
                0x080eecd4                _ZN2bf4game12_GLOBAL__N_1L14_level0_eventsE.lto_priv.0
                0x080eece0                bn::sprite_items::stage_4_meteors_small
                0x080eecfc                bn::sprite_items::stage_4_meteors_big
                0x080eed18                bn::sprite_items::stage_4_enemies_4
                0x080eed34                bn::sprite_items::stage_4_enemies_3_2
                0x080eed50                bn::sprite_items::stage_4_enemies_3_1
                0x080eed6c                bn::sprite_items::stage_4_enemies_2
                0x080eed88                bn::sprite_items::stage_4_enemies_1
                0x080eeda4                bn::sprite_items::stage_4_brain
                0x080eedc0                bn::sprite_items::stage_3_dragon_man
                0x080eeddc                bn::sprite_items::stage_3_monsters_2
                0x080eedf8                bn::sprite_items::stage_3_monsters_1
                0x080eee14                bn::sprite_items::stage_3_characters_2
                0x080eee30                bn::sprite_items::stage_3_characters_1
                0x080eee4c                bn::sprite_items::stage_3_blonde
                0x080eee68                bn::sprite_items::stage_2_robot
                0x080eee84                bn::sprite_items::stage_2_monsters_2
                0x080eeea0                bn::sprite_items::stage_2_monsters_1
                0x080eeebc                bn::sprite_items::stage_2_characters_2
                0x080eeed8                bn::sprite_items::stage_2_characters_1
                0x080eeef4                bn::sprite_items::stage_1_characters_1_team
                0x080eef10                bn::sprite_items::stage_1_monsters_2
                0x080eef2c                bn::sprite_items::stage_1_monsters_1
                0x080eef48                bn::sprite_items::stage_1_characters_2
                0x080eef64                bn::sprite_items::stage_1_characters_1
                0x080eef80                bn::sprite_items::stage_1_animals
                0x080eef9c                _ZN2bn6colorsL5blackE.lto_priv.0.lto_priv.0
                0x080eef9c                _ZN2bn6colorsL5blackE.lto_priv.1.lto_priv.0
                0x080eefa0                _ZN2bn6colorsL5whiteE.lto_priv.1.lto_priv.0
                0x080eefa0                _ZN2bn6colorsL5whiteE.lto_priv.0.lto_priv.0
                0x080eefa4                bn::sin_lut
                0x080eefa8                _ZN2bf4game12_GLOBAL__N_1L7_levelsE.lto_priv.0
                0x080ef54c                _ZN2bf12_GLOBAL__N_1L15blending_framesE.lto_priv.0
                0x080efb68                _ZN2bf12_GLOBAL__N_1L16show_hide_framesE.lto_priv.0
 .rodata        0x080efb6c     0x1a60 C:\Users\Linny\AppData\Local\Temp\cc3nsn9g.ltrans1.ltrans.o
                0x080efc0c                vtable for bf::game::gigabat_boss
                0x080efc3c                bn::sprite_items::enemy_bullets
                0x080efc74                bn::sprite_items::enemy_explosion
                0x080efc90                bn::sprite_items::gigabat
                0x080efcac                bn::sprite_items::hero_death
                0x080efcc8                _ZN2bn6colorsL3redE.lto_priv.3.lto_priv.0
                0x080efcc8                _ZN2bn6colorsL3redE.lto_priv.0.lto_priv.0
                0x080efcc8                _ZN2bn6colorsL3redE.lto_priv.2.lto_priv.0
 .rodata        0x080f15cc     0x8d2c C:\Users\Linny\AppData\Local\Temp\cc3nsn9g.ltrans2.ltrans.o
                0x080f1ad4                bn::sprite_items::hero_weapons
                0x080f1b2c                _ZN2bf4game7stage_112_GLOBAL__N_1L7stage_1E.lto_priv.0
                0x080f1b7c                bn::sprite_items::tank_extras
                0x080f1c5c                bn::sprite_items::hero_weapon_big_2
                0x080f1c94                _ZN2bf4game7stage_112_GLOBAL__N_1L18blacksmith_bulletsE.lto_priv.0
                0x080f1cd4                _ZN2bf4game7stage_112_GLOBAL__N_1L24blacksmith_flipped_movesE.lto_priv.0
                0x080f1ce0                _ZN2bf4game7stage_112_GLOBAL__N_1L11horse_movesE.lto_priv.0
                0x080f1cec                _ZN2bf4game7stage_112_GLOBAL__N_1L19jelly_flipped_movesE.lto_priv.0
                0x080f1cf8                _ZN2bf4game7stage_112_GLOBAL__N_1L11jelly_movesE.lto_priv.0
                0x080f1d04                _ZN2bf4game7stage_112_GLOBAL__N_1L5jellyE.lto_priv.0
                0x080f1d48                _ZN2bf4game7stage_112_GLOBAL__N_1L22skeleton_flipped_movesE.lto_priv.0
                0x080f1d54                _ZN2bf4game7stage_112_GLOBAL__N_1L14skeleton_movesE.lto_priv.0
                0x080f1d60                _ZN2bf4game7stage_112_GLOBAL__N_1L8skeletonE.lto_priv.0
                0x080f1da4                _ZN2bf4game7stage_112_GLOBAL__N_1L23wild_boar_flipped_movesE.lto_priv.0
                0x080f1db0                _ZN2bf4game7stage_112_GLOBAL__N_1L26blacksmith_flipped_bulletsE.lto_priv.0
                0x080f1df0                _ZN2bf4game7stage_112_GLOBAL__N_1L16blacksmith_movesE.lto_priv.0
                0x080f1dfc                _ZN2bf4game7stage_112_GLOBAL__N_1L10blacksmithE.lto_priv.0
                0x080f1e40                _ZN2bf4game7stage_112_GLOBAL__N_1L19thief_flipped_movesE.lto_priv.0
                0x080f1e58                _ZN2bf4game7stage_112_GLOBAL__N_1L15chinese_bulletsE.lto_priv.0
                0x080f1ea8                _ZN2bf4game7stage_112_GLOBAL__N_1L21chinese_flipped_movesE.lto_priv.0
                0x080f1ec0                _ZN2bf4game7stage_112_GLOBAL__N_1L7chineseE.lto_priv.0
                0x080f1f04                _ZN2bf4game7stage_112_GLOBAL__N_1L11thief_movesE.lto_priv.0
                0x080f1f1c                _ZN2bf4game7stage_112_GLOBAL__N_1L5thiefE.lto_priv.0
                0x080f1f60                _ZN2bf4game7stage_112_GLOBAL__N_1L14cowboy_bulletsE.lto_priv.0
                0x080f1f70                _ZN2bf4game7stage_112_GLOBAL__N_1L12cowboy_movesE.lto_priv.0
                0x080f1f88                _ZN2bf4game7stage_112_GLOBAL__N_1L6cowboyE.lto_priv.0
                0x080f1fcc                _ZN2bf4game7stage_112_GLOBAL__N_1L19horse_flipped_movesE.lto_priv.0
                0x080f1fd8                _ZN2bf4game7stage_112_GLOBAL__N_1L5horseE.lto_priv.0
                0x080f201c                _ZN2bf4game7stage_112_GLOBAL__N_1L15wild_boar_movesE.lto_priv.0
                0x080f2028                _ZN2bf4game7stage_112_GLOBAL__N_1L9wild_boarE.lto_priv.0
                0x080f206c                _ZN2bf4game7stage_112_GLOBAL__N_1L25characters_1_team_bulletsE.lto_priv.0
                0x080f222c                _ZN2bf4game7stage_112_GLOBAL__N_1L23characters_1_team_movesE.lto_priv.0
                0x080f225c                _ZN2bf4game7stage_112_GLOBAL__N_1L17characters_1_teamE.lto_priv.0
                0x080f22a0                _ZN2bf4game7stage_112_GLOBAL__N_1L12goblin_movesE.lto_priv.0
                0x080f22ac                _ZN2bf4game7stage_112_GLOBAL__N_1L14goblin_bulletsE.lto_priv.0
                0x080f230c                _ZN2bf4game7stage_112_GLOBAL__N_1L20goblin_flipped_movesE.lto_priv.0
                0x080f2318                _ZN2bf4game7stage_112_GLOBAL__N_1L6goblinE.lto_priv.0
                0x080f235c                _ZN2bf4game7stage_112_GLOBAL__N_1L11sheep_movesE.lto_priv.0
                0x080f2368                _ZN2bf4game7stage_112_GLOBAL__N_1L20outlaw_flipped_movesE.lto_priv.0
                0x080f2380                _ZN2bf4game7stage_112_GLOBAL__N_1L17pig_flipped_movesE.lto_priv.0
                0x080f238c                _ZN2bf4game7stage_112_GLOBAL__N_1L14outlaw_bulletsE.lto_priv.0
                0x080f23ac                _ZN2bf4game7stage_112_GLOBAL__N_1L12outlaw_movesE.lto_priv.0
                0x080f23c4                _ZN2bf4game7stage_112_GLOBAL__N_1L6outlawE.lto_priv.0
                0x080f2408                _ZN2bf4game7stage_112_GLOBAL__N_1L17man_flipped_movesE.lto_priv.0
                0x080f2420                _ZN2bf4game7stage_112_GLOBAL__N_1L9bat_movesE.lto_priv.0
                0x080f242c                _ZN2bf4game7stage_112_GLOBAL__N_1L17bat_flipped_movesE.lto_priv.0
                0x080f2438                _ZN2bf4game7stage_112_GLOBAL__N_1L3batE.lto_priv.0
                0x080f247c                _ZN2bf4game7stage_112_GLOBAL__N_1L11woman_movesE.lto_priv.0
                0x080f2494                _ZN2bf4game7stage_112_GLOBAL__N_1L5womanE.lto_priv.0
                0x080f24d8                _ZN2bf4game7stage_112_GLOBAL__N_1L20knight_flipped_movesE.lto_priv.0
                0x080f24e4                _ZN2bf4game7stage_112_GLOBAL__N_1L6knightE.lto_priv.0
                0x080f2528                _ZN2bf4game7stage_112_GLOBAL__N_1L11man_bulletsE.lto_priv.0
                0x080f2538                _ZN2bf4game7stage_112_GLOBAL__N_1L9man_movesE.lto_priv.0
                0x080f2550                _ZN2bf4game7stage_112_GLOBAL__N_1L3manE.lto_priv.0
                0x080f2594                _ZN2bf4game7stage_112_GLOBAL__N_1L19sheep_flipped_movesE.lto_priv.0
                0x080f25a0                _ZN2bf4game7stage_112_GLOBAL__N_1L5sheepE.lto_priv.0
                0x080f25e4                _ZN2bf4game7stage_112_GLOBAL__N_1L9pig_movesE.lto_priv.0
                0x080f25f0                _ZN2bf4game7stage_112_GLOBAL__N_1L3pigE.lto_priv.0
                0x080f4e0c                _ZN2bf4game7stage_112_GLOBAL__N_1L12enemy_eventsE.lto_priv.0
                0x080f66cc                bn::sprite_items::stage_1_intro_alt
                0x080f66e8                bn::sprite_items::stage_1_intro
                0x080f6704                bn::regular_bg_items::stage_1
                0x080f7964                bn::regular_bg_items::clouds
                0x080fa074                _ZN2bf4game12_GLOBAL__N_1L21blending_transparencyE.lto_priv.0
 .rodata        0x080fa2f8     0x1d94 C:\Users\Linny\AppData\Local\Temp\cc3nsn9g.ltrans3.ltrans.o
                0x080fa340                bn::sprite_items::tank_jelly
                0x080fa35c                vtable for bf::game::tank_boss
                0x080fa38c                bn::sprite_items::wizard
                0x080fa3a8                vtable for bf::game::wizard_boss
                0x080fa3d8                _ZN2bf12_GLOBAL__N_1L15blending_framesE.lto_priv.1
                0x080fa3dc                _ZN2bf12_GLOBAL__N_1L19left_text_sprites_xE.lto_priv.0
                0x080fa3fc                bn::sprite_items::hero_body_walking
                0x080fa418                bn::sprite_items::hero_shield
                0x080fa434                bn::sprite_items::brightness
                0x080fa450                bn::sprite_items::experience_frame_back
                0x080fa46c                bn::sprite_items::experience_bar
                0x080fa488                bn::sprite_items::experience_frame_front
                0x080fa4a4                bn::sprite_items::flash_palette
                0x080fa4c0                vtable for bf::how_to_play
                0x080fa4d4                vtable for bf::intro
                0x080fa4ec                _ZN2bf12_GLOBAL__N_1L7_text_xE.lto_priv.0
                0x080fa4f4                vtable for bf::title
                0x080fc088                _ZN2bf12_GLOBAL__N_1L20right_text_sprites_xE.lto_priv.0
 .rodata        0x080fc08c     0x1de4 C:\Users\Linny\AppData\Local\Temp\cc3nsn9g.ltrans4.ltrans.o
                0x080fc258                bn::music_items::battle_clean
                0x080fc568                _ZN2bn17bg_blocks_manager12_GLOBAL__N_1L19_status_log_messageE.lto_priv.0
 .rodata        0x080fde70     0x11a0 C:\Users\Linny\AppData\Local\Temp\cc3nsn9g.ltrans5.ltrans.o
                0x080fdfc8                _ZN2bn12_GLOBAL__N_1L22reciprocal_16_lut_implE.lto_priv.0
                0x080fe7cc                bn::reciprocal_16_lut
 .rodata        0x080ff010      0x7ac C:\Users\Linny\AppData\Local\Temp\cc3nsn9g.ltrans6.ltrans.o
 .rodata        0x080ff7bc       0xd0 C:\Users\Linny\AppData\Local\Temp\cc3nsn9g.ltrans7.ltrans.o
 .rodata        0x080ff88c      0xef8 verdana9.o
                0x080ff88c                verdana9Font
                0x080ff8a4                verdana9Glyphs
                0x081006a4                verdana9Widths
 *all.rodata*(*)
 *(.roda)
 *(.rodata.*)
 .rodata._bn_audio_soundbank_bin
                0x08100784   0x242e08 _bn_audio_soundbank.bin.o
                0x08100784                _bn_audio_soundbank_bin
                0x0834358c                _bn_audio_soundbank_bin_end
 .rodata.str1.4
                0x0834358c      0xfad C:\Users\Linny\AppData\Local\Temp\cc3nsn9g.ltrans0.ltrans.o
 .rodata.str1.4
                0x0834358c      0x805 C:\Users\Linny\AppData\Local\Temp\cc3nsn9g.ltrans1.ltrans.o
 .rodata.str1.4
                0x0834358c      0x7f9 C:\Users\Linny\AppData\Local\Temp\cc3nsn9g.ltrans2.ltrans.o
 .rodata.str1.4
                0x0834358c      0x7f9 C:\Users\Linny\AppData\Local\Temp\cc3nsn9g.ltrans3.ltrans.o
 .rodata.str1.4
                0x0834358c      0xdf1 C:\Users\Linny\AppData\Local\Temp\cc3nsn9g.ltrans4.ltrans.o
 .rodata.str1.4
                0x0834358c     0x101b C:\Users\Linny\AppData\Local\Temp\cc3nsn9g.ltrans5.ltrans.o
 .rodata.str1.4
                0x0834358c     0x1185 C:\Users\Linny\AppData\Local\Temp\cc3nsn9g.ltrans6.ltrans.o
 .rodata.str1.4
                0x0834358c      0x92d C:\Users\Linny\AppData\Local\Temp\cc3nsn9g.ltrans7.ltrans.o
 .rodata.__cxa_pure_virtual.str1.4
                0x0834358c     0x3b59 bn_hw_common.bn_noflto.o
                                 0x4f (size before relaxing)
 .rodata.__aeabi_idiv0.str1.4
                0x083470e5       0x38 bn_hw_common.bn_noflto.o
 *fill*         0x083470e5        0x3 ff
 .rodata._ZN2bn2hw8game_pak12_GLOBAL__N_1L8rom_dataE
                0x083470e8        0xc bn_hw_game_pak.bn_ewram.o
 .rodata._ZN2bn2hw4gpio12_GLOBAL__N_1L10rtc_stringE
                0x083470f4        0xc bn_hw_gpio.bn_noflto.o
 .rodata._ZN2bn2hw4sram12_GLOBAL__N_1L11save_stringE
                0x08347100        0xa bn_hw_sram.bn_noflto.o
 *(.gnu.linkonce.r*)
                0x0834710c                        . = ALIGN (0x4)
 *fill*         0x0834710a        0x2 ff

.ARM.extab
 *(.ARM.extab* .gnu.linkonce.armextab.*)
                0x0834710c                        __exidx_start = .

.ARM.exidx
 *(.ARM.exidx* .gnu.linkonce.armexidx.*)
                0x0834710c                        __exidx_end = .

.ctors          0x0834710c        0x0
 *crtbegin.o(.ctors)
 *(EXCLUDE_FILE(*crtend.o) .ctors)
 *(SORT_BY_NAME(.ctors.*))
 *(.ctors)
                0x0834710c                        . = ALIGN (0x4)

.dtors          0x0834710c        0x0
 *crtbegin.o(.dtors)
 *(EXCLUDE_FILE(*crtend.o) .dtors)
 *(SORT_BY_NAME(.dtors.*))
 *(.dtors)
                0x0834710c                        . = ALIGN (0x4)

.eh_frame       0x0834710c        0x4
 *(.eh_frame)
 .eh_frame      0x0834710c        0x0 C:/devkitPro/devkitARM/bin/../lib/gcc/arm-none-eabi/14.2.0/thumb/crtbegin.o
 .eh_frame      0x0834710c        0x4 C:/devkitPro/devkitARM/bin/../lib/gcc/arm-none-eabi/14.2.0/thumb/crtend.o
                0x08347110                        . = ALIGN (0x4)

.gcc_except_table
                0x08347110        0x0
 *(.gcc_except_table)
                0x08347110                        . = ALIGN (0x4)
                0x08347110                        __iwram_lma = .

.iwram          0x03000000     0x24b0 load address 0x08347110
                0x03000000                        __iwram_start__ = ABSOLUTE (.)
 *(.iwram .iwram*)
 .iwram         0x03000000      0x290 bn_sprites_manager.bn_iwram.o
                0x03000000                bn::sprites_manager::_check_items_on_screen(bn::intrusive_list<bn::sorted_sprites::layer>&)
                0x03000104                bn::sprites_manager::_rebuild_handles_impl(int, void*, bn::intrusive_list<bn::sorted_sprites::layer>&)
                0x0300019c                bn::sprites_manager::_update_cameras_impl(bn::intrusive_list<bn::sorted_sprites::layer>&)
 .iwram         0x03000290       0xc4 bn_hw_palettes.bn_iwram.o
                0x03000290                bn::hw::palettes::brightness(bn::color const*, int, int, bn::color*)
                0x030002f8                bn::hw::palettes::_lut_effect(bn::color const*, unsigned char const*, int, bn::color*)
 .iwram         0x03000354       0xa8 bn_hw_sprite_tiles.bn_iwram.o
                0x03000354                bn::hw::sprite_tiles::_plot_hideous_tiles(int, unsigned int const*, int, unsigned int*)
 .iwram         0x030003fc       0x6c bn_hw_bg_blocks.o
                0x030003fc                bn_hw_bg_blocks_commit_half_words
                0x03000414                bn_hw_bg_blocks_commit_words
                0x0300042c                bn_hw_bg_blocks_commit_blocks
 .iwram         0x03000468       0xd0 bn_hw_hblank_effects.o
                0x03000468                bn::hw::hblank_effects::_intr()
                0x03000534                bn::hw::hblank_effects::data
 .iwram         0x03000538       0x30 bn_hw_palettes_asm.o
                0x03000538                bn_hw_palettes_different_words
 .iwram.clr_blend_fast
                0x03000568       0x70 clr_blend_fast.o
                0x03000568                clr_blend_fast
 .iwram         0x030005d8       0x70 clr_fade_fast.o
                0x030005d8                clr_fade_fast
 .iwram.memset32
                0x03000648       0x4c tonc_memset.o
                0x03000648                memset32
 .iwram         0x03000694      0x134 irq_handler.o
                0x03000694                IRQ_GlobalInterruptHandler
 .iwram.__aeabi_lmul
                0x030007c8       0x14 lmul.o
                0x030007c8                __aeabi_lmul
 .iwram.__aeabi_memcpy
                0x030007dc       0xc8 memcpy.o
                0x030007dc                __aeabi_memcpy
                0x03000814                __aeabi_memcpy8
                0x03000814                __aeabi_memcpy4
                0x03000880                __agbabi_memcpy2
 .iwram.__agbabi_memcpy1
                0x030008a4       0x14 memcpy.o
                0x030008a4                __agbabi_memcpy1
 .iwram.memcpy  0x030008b8       0x10 memcpy.o
                0x030008b8                memcpy
 .iwram.__aeabi_memmove
                0x030008c8        0xc memmove.o
                0x030008c8                __aeabi_memmove
 .iwram.memmove
                0x030008d4       0x10 memmove.o
                0x030008d4                memmove
 .iwram.__aeabi_memset
                0x030008e4       0x9c memset.o
                0x030008e4                __aeabi_memset
                0x03000908                __aeabi_memset8
                0x03000908                __aeabi_memset4
                0x03000914                __agbabi_wordset4
                0x03000918                __agbabi_lwordset4
 .iwram.__agbabi_memset1
                0x03000980       0x10 memset.o
                0x03000980                __agbabi_memset1
 .iwram.memset  0x03000990       0x1c memset.o
                0x03000990                memset
 .iwram.__agbabi_rmemcpy
                0x030009ac       0xcc rmemcpy.o
                0x030009ac                __agbabi_rmemcpy
 .iwram.__agbabi_rmemcpy1
                0x03000a78       0x14 rmemcpy.o
                0x03000a78                __agbabi_rmemcpy1
 .iwram         0x03000a8c       0x3c sdiv32.o
                0x03000a8c                __aeabi_idiv
                0x03000a8c                __aeabi_idivmod
 .iwram         0x03000ac8       0xec sqrt32.o
                0x03000ac8                isqrt32
 .iwram         0x03000bb4      0x1e0 udiv32.o
                0x03000bb4                __aeabi_uidivmod
                0x03000bb4                __aeabi_uidiv
                0x03000bbc                udiv32pastzero
                0x03000c10                div32Iteration
 .iwram         0x03000d94       0x98 huffman.o
                0x03000d94                swi_HuffUnCompReadNormal
 .iwram         0x03000e2c      0x1ac lz77.o
                0x03000e2c                swi_LZ77UnCompWrite16bit
                0x03000e2c                swi_LZ77UnCompWrite8bit
 .iwram         0x03000fd8       0xec running_length.o
                0x03000fd8                swi_RLUnCompReadNormalWrite8bit
                0x03001038                swi_RLUnCompReadNormalWrite16bit
 .iwram         0x030010c4      0x554 mm_mas.o
                0x030010c4                mppProcessTick
                0x030011a8                mpp_Channel_NewNote
                0x03001288                mpp_Update_ACHN_notest
 .iwram         0x03001618      0x648 mm_mas_arm.o
                0x03001618                mmAllocChannel
                0x0300168c                mmReadPattern
                0x03001778                mmUpdateChannel_T0
                0x030019b8                mmUpdateChannel_TN
                0x03001b58                mmGetPeriod
                0x03001b9c                note_table_oct
                0x03001bba                note_table_mod
 .iwram         0x03001c60        0x8 mm_main_gba.o
                0x03001c60                mpp_call_r7i
                0x03001c62                mpp_call_r2i
                0x03001c64                mpp_call_r1i
 .iwram         0x03001c68      0x838 mm_mixer_gba.o
                0x03001c6c                mmVBlank
                0x03001cf0                mmMixerMix
 .iwram.__stub  0x030024a0        0xc linker stubs
 *iwram.*(.text* .data*)
                0x030024ac                        . = ALIGN (0x4)
                0x030024b0                        __iwram_end__ = ABSOLUTE (.)
                0x083495c0                        __data_lma = (__iwram_lma + SIZEOF (.iwram))

.bss            0x030024b0      0x86c
                0x030024b0                        __bss_start = ABSOLUTE (.)
                0x030024b0                        __bss_start__ = ABSOLUTE (.)
 *(.dynbss)
 *(.gnu.linkonce.b*)
 *(.bss*)
 .bss.completed.1
                0x030024b0        0x1 C:/devkitPro/devkitARM/bin/../lib/gcc/arm-none-eabi/14.2.0/thumb/crtbegin.o
 *fill*         0x030024b1        0x3 
 .bss.object.0  0x030024b4       0x18 C:/devkitPro/devkitARM/bin/../lib/gcc/arm-none-eabi/14.2.0/thumb/crtbegin.o
 .bss           0x030024cc      0x508 C:\Users\Linny\AppData\Local\Temp\cc3nsn9g.ltrans4.ltrans.o
                0x030024cc                IRQ_VectorTable
                0x03002924                _ZN2bn22hblank_effects_manager12_GLOBAL__N_113internal_dataE.lto_priv.0
 .bss           0x030029d4        0x4 C:\Users\Linny\AppData\Local\Temp\cc3nsn9g.ltrans7.ltrans.o
                0x030029d4                fake_heap_end
 .bss           0x030029d8       0x2d mm_effect.o
                0x030029fc                mm_sfx_bitmask
                0x03002a00                mm_sfx_clearmask
 *fill*         0x03002a05        0x3 
 .bss           0x03002a08        0x8 mm_main.o
                0x03002a08                mmCallback
                0x03002a0c                mm_ch_mask
 .bss           0x03002a10      0x148 mm_mas.o
                0x03002a10                mmLayerMain
                0x03002a48                mmLayerSub
                0x03002a80                mpp_vars
                0x03002a90                mpp_layerp
                0x03002a94                mpp_channels
                0x03002aa4                mpp_nchannels
                0x03002aa5                mpp_clayer
                0x03002aa8                mm_achannels
                0x03002aac                mm_pchannels
                0x03002ab0                mm_num_mch
                0x03002ab4                mm_num_ach
                0x03002ab8                mm_schannels
 .bss           0x03002b58        0x8 mm_main_gba.o
                0x03002b58                mm_vblank_function
                0x03002b5c                mp_solution
 .bss           0x03002b60      0x1bc mm_mixer_gba.o
                0x03002b60                mp_writepos
                0x03002b68                mm_mixchannels
                0x03002b70                mm_mixlen
                0x03002b84                mm_bpmdv
                0x03002b88                mp_mix_seg
 *(COMMON)
                0x03002d1c                        . = ALIGN (0x4)
                0x03002d1c                        __bss_end__ = ABSOLUTE (.)

.data           0x03002d1c        0x4 load address 0x083495c0
                0x03002d1c                        __data_start__ = ABSOLUTE (.)
 *(.data*)
 .data.__dso_handle
                0x03002d1c        0x4 C:/devkitPro/devkitARM/bin/../lib/gcc/arm-none-eabi/14.2.0/thumb/crtbegin.o
                0x03002d1c                __dso_handle
 *(.gnu.linkonce.d*)
                0x03002d20                        . = ALIGN (0x4)
                0x083495c4                        __preinit_lma = (__data_lma + SIZEOF (.data))

.igot.plt       0x03002d20        0x0 load address 0x083495c4
 .igot.plt      0x03002d20        0x0 C:/devkitPro/devkitARM/bin/../lib/gcc/arm-none-eabi/14.2.0/../../../../arm-none-eabi/lib/thumb/gba_crt0.o

.preinit_array  0x03002d20        0x0 load address 0x083495c4
                0x03002d20                        __preinit_array_start = ABSOLUTE (.)
 *(.preinit_array)
                0x03002d20                        __preinit_array_end = ABSOLUTE (.)
                0x083495c4                        __init_lma = (__preinit_lma + SIZEOF (.preinit_array))

.init_array     0x03002d20        0x8 load address 0x083495c4
                0x03002d20                        __init_array_start = ABSOLUTE (.)
 *(SORT_BY_NAME(.init_array.*))
 *(.init_array)
 .init_array    0x03002d20        0x4 C:/devkitPro/devkitARM/bin/../lib/gcc/arm-none-eabi/14.2.0/thumb/crtbegin.o
 .init_array    0x03002d24        0x4 C:\Users\Linny\AppData\Local\Temp\cc3nsn9g.ltrans7.ltrans.o
                0x03002d28                        __init_array_end = ABSOLUTE (.)
                0x083495cc                        __fini_lma = (__init_lma + SIZEOF (.init_array))

.fini_array     0x03002d28        0x4 load address 0x083495cc
                0x03002d28                        __fini_array_start = ABSOLUTE (.)
 *(SORT_BY_NAME(.fini_array.*))
 *(.fini_array)
 .fini_array    0x03002d28        0x4 C:/devkitPro/devkitARM/bin/../lib/gcc/arm-none-eabi/14.2.0/thumb/crtbegin.o
                0x03002d2c                        __fini_array_end = ABSOLUTE (.)
                0x083495d0                        __jcr_lma = (__fini_lma + SIZEOF (.fini_array))

.jcr
 *(.jcr)
                0x03002d2c                        __data_end__ = ABSOLUTE (.)
                0x083495d0                        __iwram_overlay_lma = (__jcr_lma + SIZEOF (.jcr))
                0x03002d2c                        __iwram_overlay_start = .

.iwram0         0x03002d2c        0x0 load address 0x083495d0
 *(.iwram0)
                0x03002d2c                        . = ALIGN (0x4)
                0x083495d0                        PROVIDE (__load_start_iwram0 = LOADADDR (.iwram0))
                0x083495d0                        PROVIDE (__load_stop_iwram0 = (LOADADDR (.iwram0) + SIZEOF (.iwram0)))

.iwram1         0x03002d2c        0x0
 *(.iwram1)
                0x03002d2c                        . = ALIGN (0x4)
                [!provide]                        PROVIDE (__load_start_iwram1 = LOADADDR (.iwram1))
                [!provide]                        PROVIDE (__load_stop_iwram1 = (LOADADDR (.iwram1) + SIZEOF (.iwram1)))

.iwram2         0x03002d2c        0x0
 *(.iwram2)
                0x03002d2c                        . = ALIGN (0x4)
                [!provide]                        PROVIDE (__load_start_iwram2 = LOADADDR (.iwram2))
                [!provide]                        PROVIDE (__load_stop_iwram2 = (LOADADDR (.iwram2) + SIZEOF (.iwram2)))

.iwram3         0x03002d2c        0x0
 *(.iwram3)
                0x03002d2c                        . = ALIGN (0x4)
                [!provide]                        PROVIDE (__load_start_iwram3 = LOADADDR (.iwram3))
                [!provide]                        PROVIDE (__load_stop_iwram3 = (LOADADDR (.iwram3) + SIZEOF (.iwram3)))

.iwram4         0x03002d2c        0x0
 *(.iwram4)
                0x03002d2c                        . = ALIGN (0x4)
                [!provide]                        PROVIDE (__load_start_iwram4 = LOADADDR (.iwram4))
                [!provide]                        PROVIDE (__load_stop_iwram4 = (LOADADDR (.iwram4) + SIZEOF (.iwram4)))

.iwram5         0x03002d2c        0x0
 *(.iwram5)
                0x03002d2c                        . = ALIGN (0x4)
                [!provide]                        PROVIDE (__load_start_iwram5 = LOADADDR (.iwram5))
                [!provide]                        PROVIDE (__load_stop_iwram5 = (LOADADDR (.iwram5) + SIZEOF (.iwram5)))

.iwram6         0x03002d2c        0x0
 *(.iwram6)
                0x03002d2c                        . = ALIGN (0x4)
                [!provide]                        PROVIDE (__load_start_iwram6 = LOADADDR (.iwram6))
                [!provide]                        PROVIDE (__load_stop_iwram6 = (LOADADDR (.iwram6) + SIZEOF (.iwram6)))

.iwram7         0x03002d2c        0x0
 *(.iwram7)
                0x03002d2c                        . = ALIGN (0x4)
                [!provide]                        PROVIDE (__load_start_iwram7 = LOADADDR (.iwram7))
                [!provide]                        PROVIDE (__load_stop_iwram7 = (LOADADDR (.iwram7) + SIZEOF (.iwram7)))

.iwram8         0x03002d2c        0x0
 *(.iwram8)
                0x03002d2c                        . = ALIGN (0x4)
                [!provide]                        PROVIDE (__load_start_iwram8 = LOADADDR (.iwram8))
                [!provide]                        PROVIDE (__load_stop_iwram8 = (LOADADDR (.iwram8) + SIZEOF (.iwram8)))

.iwram9         0x03002d2c        0x0
 *(.iwram9)
                0x03002d2c                        . = ALIGN (0x4)
                [!provide]                        PROVIDE (__load_start_iwram9 = LOADADDR (.iwram9))
                [!provide]                        PROVIDE (__load_stop_iwram9 = (LOADADDR (.iwram9) + SIZEOF (.iwram9)))
                0x03002d2c                        __iwram_overlay_end = .
                0x083495d0                        __ewram_lma = (__iwram_overlay_lma + (__iwram_overlay_end - __iwram_overlay_start))
                0x03002d2c                        __iheap_start = .
                0x02000000                        __ewram_start = ORIGIN (ewram)

.ewram          0x02000000       0xf4 load address 0x083495d0
 *(.ewram*)
 .ewram         0x02000000        0x2 C:\Users\Linny\AppData\Local\Temp\cc3nsn9g.ltrans0.ltrans.o
                0x02000000                _ZN2bn12gpio_manager12_GLOBAL__N_14dataE.lto_priv.0
 *fill*         0x02000002        0x2 ff
 .ewram         0x02000004        0xc C:\Users\Linny\AppData\Local\Temp\cc3nsn9g.ltrans4.ltrans.o
                0x02000004                Vgm
 .ewram         0x02000010       0x48 C:\Users\Linny\AppData\Local\Temp\cc3nsn9g.ltrans6.ltrans.o
 .ewram         0x02000058       0x9c bn_hw_game_pak.bn_ewram.o
                0x02000058                bn::hw::game_pak::_slow_game_pak()
                0x020000f4                        . = ALIGN (0x4)
                0x020000f4                        __ewram_end = ABSOLUTE (.)
                0x083496c4                        __pad_lma = (__ewram_lma + SIZEOF (.ewram))

.sbss           0x020000f4     0x8204
                0x020000f4                        __sbss_start__ = ABSOLUTE (.)
 *(.sbss*)
 .sbss          0x020000f4     0x723c C:\Users\Linny\AppData\Local\Temp\cc3nsn9g.ltrans0.ltrans.o
                0x020000f4                _ZN2bn15cameras_manager12_GLOBAL__N_14dataE.lto_priv.0
                0x0200012c                _ZN2bn14keypad_manager12_GLOBAL__N_14dataE.lto_priv.0
                0x02000144                _ZN2bn20sprite_tiles_manager12_GLOBAL__N_14dataE.lto_priv.0
                0x020017b8                _ZN2bn14memory_manager12_GLOBAL__N_14dataE.lto_priv.0
                0x020017c8                _ZN2bn15sprites_manager12_GLOBAL__N_14dataE.lto_priv.0
                0x02003e18                _ZN2bn13audio_manager12_GLOBAL__N_14dataE.lto_priv.0
                0x02003f8c                _ZN2bn22hblank_effects_manager12_GLOBAL__N_113external_dataE.lto_priv.0
                0x020059d0                _ZN2bn11bgs_manager12_GLOBAL__N_14dataE.lto_priv.0
                0x02005c7c                _ZN2bn15display_manager12_GLOBAL__N_14dataE.lto_priv.0
                0x02005d20                _ZN2bn26sprite_affine_mats_manager12_GLOBAL__N_14dataE.lto_priv.0
                0x020065e8                _ZN2bn16palettes_manager12_GLOBAL__N_14dataE.lto_priv.0
 .sbss          0x02007330      0xfc8 C:\Users\Linny\AppData\Local\Temp\cc3nsn9g.ltrans4.ltrans.o
                0x02007330                _ZN2bn2hw5audio12_GLOBAL__N_14dataE.lto_priv.0
                0x0200737c                _ZN2bn12hdma_manager12_GLOBAL__N_14dataE.lto_priv.0
                0x020073b4                _ZN2bn4core12_GLOBAL__N_14dataE.lto_priv.0
                0x020073fc                gbt.lto_priv.0
                0x02007494                _ZN2bn17bg_blocks_manager12_GLOBAL__N_14dataE.lto_priv.0
                0x020081c8                _ZN2bn2hw4link12_GLOBAL__N_14dataE.lto_priv.0
                0x020082f8                        . = ALIGN (0x4)
                0x020082f8                        __sbss_end__ = ABSOLUTE (.)
                0x020082f8                        __end__ = ABSOLUTE (.)
                0x020082f8                        __eheap_start = ABSOLUTE (.)

.pad            0x020082f8        0x8 load address 0x083496c4
                0x020082f8        0x4 LONG 0x52416b64
                0x020082fc        0x4 LONG 0x4d
                0x02008300                        . = ALIGN (0x4)
                0x083496cc                        __rom_end__ = (__pad_lma + SIZEOF (.pad))

.rel.dyn        0x02008300        0x0 load address 0x083496cc
 .rel.iplt      0x02008300        0x0 C:/devkitPro/devkitARM/bin/../lib/gcc/arm-none-eabi/14.2.0/../../../../arm-none-eabi/lib/thumb/gba_crt0.o

.stab
 *(.stab)

.stabstr
 *(.stabstr)

.stab.excl
 *(.stab.excl)

.stab.exclstr
 *(.stab.exclstr)

.stab.index
 *(.stab.index)

.stab.indexstr
 *(.stab.indexstr)

.comment        0x00000000       0x23
 *(.comment)
 .comment       0x00000000       0x23 C:/devkitPro/devkitARM/bin/../lib/gcc/arm-none-eabi/14.2.0/thumb/crtbegin.o
                                 0x24 (size before relaxing)
 .comment       0x00000023       0x24 C:\Users\Linny\AppData\Local\Temp\cc3nsn9g.ltrans0.ltrans.o
 .comment       0x00000023       0x24 C:\Users\Linny\AppData\Local\Temp\cc3nsn9g.ltrans1.ltrans.o
 .comment       0x00000023       0x24 C:\Users\Linny\AppData\Local\Temp\cc3nsn9g.ltrans2.ltrans.o
 .comment       0x00000023       0x24 C:\Users\Linny\AppData\Local\Temp\cc3nsn9g.ltrans3.ltrans.o
 .comment       0x00000023       0x24 C:\Users\Linny\AppData\Local\Temp\cc3nsn9g.ltrans4.ltrans.o
 .comment       0x00000023       0x24 C:\Users\Linny\AppData\Local\Temp\cc3nsn9g.ltrans5.ltrans.o
 .comment       0x00000023       0x24 C:\Users\Linny\AppData\Local\Temp\cc3nsn9g.ltrans6.ltrans.o
 .comment       0x00000023       0x24 C:\Users\Linny\AppData\Local\Temp\cc3nsn9g.ltrans7.ltrans.o
 .comment       0x00000023       0x24 bn_sprites_manager.bn_iwram.o
 .comment       0x00000023       0x24 bn_hw_common.bn_noflto.o
 .comment       0x00000023       0x24 bn_hw_game_pak.bn_ewram.o
 .comment       0x00000023       0x24 bn_hw_gpio.bn_noflto.o
 .comment       0x00000023       0x24 bn_hw_palettes.bn_iwram.o
 .comment       0x00000023       0x24 bn_hw_sprite_tiles.bn_iwram.o
 .comment       0x00000023       0x24 bn_hw_sram.bn_noflto.o
 .comment       0x00000023       0x24 C:/devkitPro/devkitARM/bin/../lib/gcc/arm-none-eabi/14.2.0/thumb/crtend.o

.debug
 *(.debug)

.line
 *(.line)

.debug_srcinfo
 *(.debug_srcinfo)

.debug_sfnames
 *(.debug_sfnames)

.debug_aranges  0x00000000      0x728
 *(.debug_aranges)
 .debug_aranges
                0x00000000       0x20 C:\Users\Linny\AppData\Local\Temp\cc3nsn9g.ltrans0.ltrans.o
 .debug_aranges
                0x00000020       0x20 C:\Users\Linny\AppData\Local\Temp\cc3nsn9g.ltrans1.ltrans.o
 .debug_aranges
                0x00000040       0x20 C:\Users\Linny\AppData\Local\Temp\cc3nsn9g.ltrans2.ltrans.o
 .debug_aranges
                0x00000060       0x20 C:\Users\Linny\AppData\Local\Temp\cc3nsn9g.ltrans3.ltrans.o
 .debug_aranges
                0x00000080       0x28 C:\Users\Linny\AppData\Local\Temp\cc3nsn9g.ltrans4.ltrans.o
 .debug_aranges
                0x000000a8       0x20 C:\Users\Linny\AppData\Local\Temp\cc3nsn9g.ltrans5.ltrans.o
 .debug_aranges
                0x000000c8       0x20 C:\Users\Linny\AppData\Local\Temp\cc3nsn9g.ltrans6.ltrans.o
 .debug_aranges
                0x000000e8       0x20 C:\Users\Linny\AppData\Local\Temp\cc3nsn9g.ltrans7.ltrans.o
 .debug_aranges
                0x00000108       0x30 bn_sprites_manager.bn_iwram.o
 .debug_aranges
                0x00000138       0x58 bn_hw_common.bn_noflto.o
 .debug_aranges
                0x00000190       0x20 bn_hw_game_pak.bn_ewram.o
 .debug_aranges
                0x000001b0       0x20 bn_hw_gpio.bn_noflto.o
 .debug_aranges
                0x000001d0       0x28 bn_hw_palettes.bn_iwram.o
 .debug_aranges
                0x000001f8       0x20 bn_hw_sprite_tiles.bn_iwram.o
 .debug_aranges
                0x00000218       0x20 bn_hw_sram.bn_noflto.o
 .debug_aranges
                0x00000238       0x20 bn_hw_bg_blocks.o
 .debug_aranges
                0x00000258       0x20 bn_hw_core.o
 .debug_aranges
                0x00000278       0x20 bn_hw_hblank_effects.o
 .debug_aranges
                0x00000298       0x20 bn_hw_palettes_asm.o
 .debug_aranges
                0x000002b8       0x20 clr_blend_fast.o
 .debug_aranges
                0x000002d8       0x20 clr_fade_fast.o
 .debug_aranges
                0x000002f8      0x130 tonc_bios.o
 .debug_aranges
                0x00000428       0x28 tonc_memset.o
 .debug_aranges
                0x00000450       0x20 irq_handler.o
 .debug_aranges
                0x00000470       0x20 posprintf.o
 .debug_aranges
                0x00000490       0x38 lmul.o
 .debug_aranges
                0x000004c8       0x30 memcpy.o
 .debug_aranges
                0x000004f8       0x38 memmove.o
 .debug_aranges
                0x00000530       0x38 memset.o
 .debug_aranges
                0x00000568       0x28 rmemcpy.o
 .debug_aranges
                0x00000590       0x20 sdiv32.o
 .debug_aranges
                0x000005b0       0x20 sqrt32.o
 .debug_aranges
                0x000005d0       0x20 udiv32.o
 .debug_aranges
                0x000005f0       0x20 huffman.o
 .debug_aranges
                0x00000610       0x20 lz77.o
 .debug_aranges
                0x00000630       0x20 running_length.o
 .debug_aranges
                0x00000650       0x20 mm_effect.o
 .debug_aranges
                0x00000670       0x20 mm_main.o
 .debug_aranges
                0x00000690       0x28 mm_mas.o
 .debug_aranges
                0x000006b8       0x20 mm_mas_arm.o
 .debug_aranges
                0x000006d8       0x28 mm_main_gba.o
 .debug_aranges
                0x00000700       0x28 mm_mixer_gba.o

.debug_pubnames
 *(.debug_pubnames)

.debug_info     0x00000000   0x62c087
 *(.debug_info)
 .debug_info    0x00000000    0x2f033 C:\Users\Linny\AppData\Local\Temp\cc3nsn9g.ltrans0.ltrans.o
 .debug_info    0x0002f033    0x1a909 C:\Users\Linny\AppData\Local\Temp\cc3nsn9g.ltrans1.ltrans.o
 .debug_info    0x0004993c    0x258bd C:\Users\Linny\AppData\Local\Temp\cc3nsn9g.ltrans2.ltrans.o
 .debug_info    0x0006f1f9    0x25043 C:\Users\Linny\AppData\Local\Temp\cc3nsn9g.ltrans3.ltrans.o
 .debug_info    0x0009423c    0x2036c C:\Users\Linny\AppData\Local\Temp\cc3nsn9g.ltrans4.ltrans.o
 .debug_info    0x000b45a8    0x1b790 C:\Users\Linny\AppData\Local\Temp\cc3nsn9g.ltrans5.ltrans.o
 .debug_info    0x000cfd38    0x1f3b5 C:\Users\Linny\AppData\Local\Temp\cc3nsn9g.ltrans6.ltrans.o
 .debug_info    0x000ef0ed    0x1e1d9 C:\Users\Linny\AppData\Local\Temp\cc3nsn9g.ltrans7.ltrans.o
 .debug_info    0x0010d2c6    0x1252f C:\Users\Linny\AppData\Local\Temp\cc0QidYf.debug.temp.o
                0x0010d2c6                bf_butano_background.cpp.b21cb21d
 .debug_info    0x0011f7f5     0x607e C:\Users\Linny\AppData\Local\Temp\ccqHmLQ6.debug.temp.o
                0x0011f7f5                bf_circle_generator.cpp.d9dd6d79
 .debug_info    0x00125873    0x1aa96 C:\Users\Linny\AppData\Local\Temp\ccAFu9EX.debug.temp.o
                0x00125873                bf_credits.cpp.82724270
 .debug_info    0x00140309    0x10bf3 C:\Users\Linny\AppData\Local\Temp\ccyrT7GO.debug.temp.o
                0x00140309                bf_ending.cpp.f2fd2e0a
 .debug_info    0x00150efc    0x32a2f C:\Users\Linny\AppData\Local\Temp\cc803ODF.debug.temp.o
                0x00150efc                bf_game.cpp.7938f646
 .debug_info    0x0018392b    0x165cf C:\Users\Linny\AppData\Local\Temp\ccyrM6Nw.debug.temp.o
                0x0018392b                bf_game_background.cpp.c59e3711
 .debug_info    0x00199efa    0x23e9a C:\Users\Linny\AppData\Local\Temp\ccAJmFTn.debug.temp.o
                0x00199efa                bf_game_boss.cpp.3adcdfab
 .debug_info    0x001bdd94    0x11e32 C:\Users\Linny\AppData\Local\Temp\ccCbYndf.debug.temp.o
                0x001bdd94                bf_game_boss_intro.cpp.727187e7
 .debug_info    0x001cfbc6    0x1ffe0 C:\Users\Linny\AppData\Local\Temp\ccIfMjv5.debug.temp.o
                0x001cfbc6                bf_game_butano_boss.cpp.b8c99a0b
 .debug_info    0x001efba6    0x25e8f C:\Users\Linny\AppData\Local\Temp\ccMULdKV.debug.temp.o
                0x001efba6                bf_game_enemies.cpp.1d7c12dd
 .debug_info    0x00215a35    0x111bb C:\Users\Linny\AppData\Local\Temp\ccA9fyUL.debug.temp.o
                0x00215a35                bf_game_enemies_grid.cpp.ada01100
 .debug_info    0x00226bf0    0x21905 C:\Users\Linny\AppData\Local\Temp\cciTpTiC.debug.temp.o
                0x00226bf0                bf_game_enemy.cpp.890db550
 .debug_info    0x002484f5    0x121ea C:\Users\Linny\AppData\Local\Temp\ccCAm7Ps.debug.temp.o
                0x002484f5                bf_game_enemy_bullets.cpp.e7b116be
 .debug_info    0x0025a6df     0xf22a C:\Users\Linny\AppData\Local\Temp\ccqpvbij.debug.temp.o
                0x0025a6df                bf_game_explosion.cpp.5536ac40
 .debug_info    0x00269909     0xe14f C:\Users\Linny\AppData\Local\Temp\cc2voHX9.debug.temp.o
                0x00269909                bf_game_gem.cpp.ac144a39
 .debug_info    0x00277a58    0x1f404 C:\Users\Linny\AppData\Local\Temp\ccsikEy0.debug.temp.o
                0x00277a58                bf_game_gigabat_boss.cpp.dfaa7b20
 .debug_info    0x00296e5c    0x2d066 C:\Users\Linny\AppData\Local\Temp\cccb4VcQ.debug.temp.o
                0x00296e5c                bf_game_hero.cpp.0ed3e8d3
 .debug_info    0x002c3ec2    0x2d9f9 C:\Users\Linny\AppData\Local\Temp\ccQEmN1F.debug.temp.o
                0x002c3ec2                bf_game_hero_bomb.cpp.897d4719
 .debug_info    0x002f18bb     0x537c C:\Users\Linny\AppData\Local\Temp\cccFS4Lv.debug.temp.o
                0x002f18bb                bf_game_hero_bullet_level.cpp.585a1cb2
 .debug_info    0x002f6c37    0x1fd16 C:\Users\Linny\AppData\Local\Temp\cco0pOJl.debug.temp.o
                0x002f6c37                bf_game_hero_bullets.cpp.6cc27133
 .debug_info    0x0031694d    0x1dd20 C:\Users\Linny\AppData\Local\Temp\ccq8mxDb.debug.temp.o
                0x0031694d                bf_game_intro.cpp.a2e527f1
 .debug_info    0x0033466d     0xe2ac C:\Users\Linny\AppData\Local\Temp\ccW107F1.debug.temp.o
                0x0033466d                bf_game_object.cpp.70ad2bad
 .debug_info    0x00342919     0xeaf5 C:\Users\Linny\AppData\Local\Temp\ccGQ8ArV.debug.temp.o
                0x00342919                bf_game_object_message.cpp.c6bbc1e3
 .debug_info    0x0035140e    0x1030c C:\Users\Linny\AppData\Local\Temp\ccafLu8O.debug.temp.o
                0x0035140e                bf_game_objects.cpp.0b6b6c3c
 .debug_info    0x0036171a     0xdb98 C:\Users\Linny\AppData\Local\Temp\ccy82o3I.debug.temp.o
                0x0036171a                bf_game_pause.cpp.f48295b9
 .debug_info    0x0036f2b2    0x1d40d C:\Users\Linny\AppData\Local\Temp\ccsQib7C.debug.temp.o
                0x0036f2b2                bf_game_scoreboard.cpp.2472d700
 .debug_info    0x0038c6bf     0xbc49 C:\Users\Linny\AppData\Local\Temp\ccsRm57w.debug.temp.o
                0x0038c6bf                bf_game_stage_1.cpp.e0bed2e1
 .debug_info    0x00398308     0xc364 C:\Users\Linny\AppData\Local\Temp\ccidsrmr.debug.temp.o
                0x00398308                bf_game_stage_2.cpp.404e3b9d
 .debug_info    0x003a466c     0xc0b3 C:\Users\Linny\AppData\Local\Temp\ccO2tdwl.debug.temp.o
                0x003a466c                bf_game_stage_3.cpp.09750d55
 .debug_info    0x003b071f     0xbf88 C:\Users\Linny\AppData\Local\Temp\ccQgYlJe.debug.temp.o
                0x003b071f                bf_game_stage_4.cpp.2feba897
 .debug_info    0x003bc6a7    0x20848 C:\Users\Linny\AppData\Local\Temp\ccaUoM47.debug.temp.o
                0x003bc6a7                bf_game_tank_boss.cpp.1dbf35af
 .debug_info    0x003dceef    0x1fc19 C:\Users\Linny\AppData\Local\Temp\ccc42Cl1.debug.temp.o
                0x003dceef                bf_game_wizard_boss.cpp.b7a8f524
 .debug_info    0x003fcb08    0x1f93c C:\Users\Linny\AppData\Local\Temp\cc4yIVPU.debug.temp.o
                0x003fcb08                bf_how_to_play.cpp.cf660107
 .debug_info    0x0041c444    0x11fb4 C:\Users\Linny\AppData\Local\Temp\ccA8xFtO.debug.temp.o
                0x0041c444                bf_intro.cpp.be62074c
 .debug_info    0x0042e3f8     0xb89d C:\Users\Linny\AppData\Local\Temp\ccMbkP2H.debug.temp.o
                0x0042e3f8                bf_keypad_shortcuts.cpp.059bdfe7
 .debug_info    0x00439c95     0xcaba C:\Users\Linny\AppData\Local\Temp\ccE07sGA.debug.temp.o
                0x00439c95                bf_stats.cpp.dcc55f61
 .debug_info    0x0044674f     0xd1ab C:\Users\Linny\AppData\Local\Temp\ccgpqxft.debug.temp.o
                0x0044674f                bf_status.cpp.bf7d7567
 .debug_info    0x004538fa    0x22e3f C:\Users\Linny\AppData\Local\Temp\ccMioC2l.debug.temp.o
                0x004538fa                bf_title.cpp.2451d329
 .debug_info    0x00476739    0x15c9a C:\Users\Linny\AppData\Local\Temp\cc0Iz7Ke.debug.temp.o
                0x00476739                main.cpp.66852713
 .debug_info    0x0048c3d3     0xb370 C:\Users\Linny\AppData\Local\Temp\cc2qv4G7.debug.temp.o
                0x0048c3d3                bn_affine_bg_animate_actions.cpp.faa71bd1
 .debug_info    0x00497743     0xf6e7 C:\Users\Linny\AppData\Local\Temp\ccsHckL0.debug.temp.o
                0x00497743                bn_audio_manager.cpp.4adfec4f
 .debug_info    0x004a6e2a     0x6104 C:\Users\Linny\AppData\Local\Temp\ccAu7ZKT.debug.temp.o
                0x004a6e2a                bn_best_fit_allocator.cpp.96bdd576
 .debug_info    0x004acf2e    0x1e730 C:\Users\Linny\AppData\Local\Temp\ccaAW1NL.debug.temp.o
                0x004acf2e                bn_bg_blocks_manager.cpp.c968dc94
 .debug_info    0x004cb65e    0x21e31 C:\Users\Linny\AppData\Local\Temp\ccscZtMD.debug.temp.o
                0x004cb65e                bn_bgs_manager.cpp.361d9705
 .debug_info    0x004ed48f     0x693a C:\Users\Linny\AppData\Local\Temp\ccMvLUHv.debug.temp.o
                0x004ed48f                bn_cameras_manager.cpp.7346fb3e
 .debug_info    0x004f3dc9     0x82f8 C:\Users\Linny\AppData\Local\Temp\ccYImWQn.debug.temp.o
                0x004f3dc9                bn_core.cpp.e2309dcc
 .debug_info    0x004fc0c1    0x1613f C:\Users\Linny\AppData\Local\Temp\ccO07o9f.debug.temp.o
                0x004fc0c1                bn_display_manager.cpp.82b9b034
 .debug_info    0x00512200     0x67d5 C:\Users\Linny\AppData\Local\Temp\cckgj9m8.debug.temp.o
                0x00512200                bn_gpio_manager.cpp.6d80f635
 .debug_info    0x005189d5    0x3bcb5 C:\Users\Linny\AppData\Local\Temp\ccGm2tO0.debug.temp.o
                0x005189d5                bn_hblank_effects_manager.cpp.7c1c1d32
 .debug_info    0x0055468a     0x3dbc C:\Users\Linny\AppData\Local\Temp\ccAaZwaT.debug.temp.o
                0x0055468a                bn_hdma_manager.cpp.d3a8ad4d
 .debug_info    0x00558446     0x4bc4 C:\Users\Linny\AppData\Local\Temp\ccGW10bP.debug.temp.o
                0x00558446                bn_keypad_manager.cpp.4575b8f1
 .debug_info    0x0055d00a     0x68e5 C:\Users\Linny\AppData\Local\Temp\ccMI4udL.debug.temp.o
                0x0055d00a                bn_link_manager.cpp.06abcfa8
 .debug_info    0x005638ef     0x6948 C:\Users\Linny\AppData\Local\Temp\ccIlFzsH.debug.temp.o
                0x005638ef                bn_memory_manager.cpp.4123a296
 .debug_info    0x0056a237    0x10c6a C:\Users\Linny\AppData\Local\Temp\ccwwxdSD.debug.temp.o
                0x0056a237                bn_palettes_manager.cpp.c294c9f7
 .debug_info    0x0057aea1    0x11f41 C:\Users\Linny\AppData\Local\Temp\ccwXF1ft.debug.temp.o
                0x0057aea1                bn_sprite_affine_mats_manager.cpp.12ade57a
 .debug_info    0x0058cde2     0xab37 C:\Users\Linny\AppData\Local\Temp\ccYImjNo.debug.temp.o
                0x0058cde2                bn_sprite_animate_actions.cpp.d922f010
 .debug_info    0x00597919    0x170c6 C:\Users\Linny\AppData\Local\Temp\cc0eyjfk.debug.temp.o
                0x00597919                bn_sprite_text_generator.cpp.6b1f10c6
 .debug_info    0x005ae9df     0xfc2e C:\Users\Linny\AppData\Local\Temp\ccyzHbQf.debug.temp.o
                0x005ae9df                bn_sprite_tiles_manager.cpp.bac463b8
 .debug_info    0x005be60d    0x1d61a C:\Users\Linny\AppData\Local\Temp\cc40AdFb.debug.temp.o
                0x005be60d                bn_sprites_manager.cpp.75bdaa1a
 .debug_info    0x005dbc27     0x63cf C:\Users\Linny\AppData\Local\Temp\ccgqUwp7.debug.temp.o
                0x005dbc27                bn_sstream.cpp.2c5af126
 .debug_info    0x005e1ff6    0x12cbb C:\Users\Linny\AppData\Local\Temp\cciGLqn3.debug.temp.o
                0x005e1ff6                bn_translation_unit.cpp.7f22187b
 .debug_info    0x005f4cb1     0x5992 C:\Users\Linny\AppData\Local\Temp\ccmDmjiZ.debug.temp.o
                0x005f4cb1                bn_hw_audio.cpp.03d87526
 .debug_info    0x005fa643     0x17d1 C:\Users\Linny\AppData\Local\Temp\ccymOXbU.debug.temp.o
                0x005fa643                bn_hw_cstdlib.cpp.da048348
 .debug_info    0x005fbe14      0x52b C:\Users\Linny\AppData\Local\Temp\ccAWNcjP.debug.temp.o
                0x005fbe14                bn_hw_cstring.cpp.31c04360
 .debug_info    0x005fc33f     0x5b54 C:\Users\Linny\AppData\Local\Temp\cciudJlK.debug.temp.o
                0x005fc33f                bn_hw_link.cpp.aa2c522e
 .debug_info    0x00601e93     0x49d6 C:\Users\Linny\AppData\Local\Temp\ccqaoNDA.debug.temp.o
                0x00601e93                bn_hw_palettes.cpp.5a0122c8
 .debug_info    0x00606869     0x80d4 C:\Users\Linny\AppData\Local\Temp\ccwgzCOv.debug.temp.o
                0x00606869                bn_hw_show.cpp.be5c164e
 .debug_info    0x0060e93d      0x6c7 C:\Users\Linny\AppData\Local\Temp\ccmAJT8q.debug.temp.o
                0x0060e93d                bn_hw_system_font.cpp.cc9e6b7a
 .debug_info    0x0060f004     0x4ac7 C:\Users\Linny\AppData\Local\Temp\cccUTatm.debug.temp.o
                0x0060f004                bn_hw_text.cpp.734ff87a
 .debug_info    0x00613acb      0x64e C:\Users\Linny\AppData\Local\Temp\ccgDtmQg.debug.temp.o
                0x00613acb                vgm.cpp.174790e4
 .debug_info    0x00614119      0x594 C:\Users\Linny\AppData\Local\Temp\ccq9kxab.debug.temp.o
                0x00614119                tonc_color.c.f6296d59
 .debug_info    0x006146ad      0x5e1 C:\Users\Linny\AppData\Local\Temp\ccottiI5.debug.temp.o
                0x006146ad                tonc_sbmp16.c.9d7b2596
 .debug_info    0x00614c8e      0x596 C:\Users\Linny\AppData\Local\Temp\ccANA3XJ.debug.temp.o
                0x00614c8e                bmp16_drawg_b1cs.c.d1224e1e
 .debug_info    0x00615224      0x4cf C:\Users\Linny\AppData\Local\Temp\ccI0Q7NE.debug.temp.o
                0x00615224                tte_init_bmp.c.be35707f
 .debug_info    0x006156f3      0x9be C:\Users\Linny\AppData\Local\Temp\ccoVkUyz.debug.temp.o
                0x006156f3                tte_main.c.378c6b38
 .debug_info    0x006160b1      0x1b3 C:\Users\Linny\AppData\Local\Temp\ccsAih3x.debug.temp.o
                0x006160b1                interrupts_gba.c.daae40a6
 .debug_info    0x00616264     0x119b C:\Users\Linny\AppData\Local\Temp\ccy6DpGt.debug.temp.o
                0x00616264                gbt_player.c.f6a23e24
 .debug_info    0x006173ff     0xc3c4 bn_sprites_manager.bn_iwram.o
 .debug_info    0x006237c3     0x1c57 bn_hw_common.bn_noflto.o
 .debug_info    0x0062541a      0x614 bn_hw_game_pak.bn_ewram.o
 .debug_info    0x00625a2e     0x4067 bn_hw_gpio.bn_noflto.o
 .debug_info    0x00629a95     0x1378 bn_hw_palettes.bn_iwram.o
 .debug_info    0x0062ae0d      0x7a3 bn_hw_sprite_tiles.bn_iwram.o
 .debug_info    0x0062b5b0      0x55b bn_hw_sram.bn_noflto.o
 .debug_info    0x0062bb0b       0x23 bn_hw_bg_blocks.o
 .debug_info    0x0062bb2e       0x23 bn_hw_core.o
 .debug_info    0x0062bb51       0x24 bn_hw_hblank_effects.o
 .debug_info    0x0062bb75       0x23 bn_hw_palettes_asm.o
 .debug_info    0x0062bb98       0x30 clr_blend_fast.o
 .debug_info    0x0062bbc8       0x23 clr_fade_fast.o
 .debug_info    0x0062bbeb      0x1c8 tonc_bios.o
 .debug_info    0x0062bdb3       0x3a tonc_memset.o
 .debug_info    0x0062bded       0x24 irq_handler.o
 .debug_info    0x0062be11       0x24 posprintf.o
 .debug_info    0x0062be35       0x22 lmul.o
 .debug_info    0x0062be57       0x22 memcpy.o
 .debug_info    0x0062be79       0x22 memmove.o
 .debug_info    0x0062be9b       0x22 memset.o
 .debug_info    0x0062bebd       0x22 rmemcpy.o
 .debug_info    0x0062bedf       0x23 sdiv32.o
 .debug_info    0x0062bf02       0x24 sqrt32.o
 .debug_info    0x0062bf26       0x24 udiv32.o
 .debug_info    0x0062bf4a       0x24 huffman.o
 .debug_info    0x0062bf6e       0x24 lz77.o
 .debug_info    0x0062bf92       0x24 running_length.o
 .debug_info    0x0062bfb6       0x24 mm_effect.o
 .debug_info    0x0062bfda       0x23 mm_main.o
 .debug_info    0x0062bffd       0x22 mm_mas.o
 .debug_info    0x0062c01f       0x24 mm_mas_arm.o
 .debug_info    0x0062c043       0x22 mm_main_gba.o
 .debug_info    0x0062c065       0x22 mm_mixer_gba.o

.debug_abbrev   0x00000000    0x39b41
 *(.debug_abbrev)
 .debug_abbrev  0x00000000      0x328 C:\Users\Linny\AppData\Local\Temp\cc3nsn9g.ltrans0.ltrans.o
 .debug_abbrev  0x00000328      0x2ec C:\Users\Linny\AppData\Local\Temp\cc3nsn9g.ltrans1.ltrans.o
 .debug_abbrev  0x00000614      0x313 C:\Users\Linny\AppData\Local\Temp\cc3nsn9g.ltrans2.ltrans.o
 .debug_abbrev  0x00000927      0x308 C:\Users\Linny\AppData\Local\Temp\cc3nsn9g.ltrans3.ltrans.o
 .debug_abbrev  0x00000c2f      0x363 C:\Users\Linny\AppData\Local\Temp\cc3nsn9g.ltrans4.ltrans.o
 .debug_abbrev  0x00000f92      0x32a C:\Users\Linny\AppData\Local\Temp\cc3nsn9g.ltrans5.ltrans.o
 .debug_abbrev  0x000012bc      0x37c C:\Users\Linny\AppData\Local\Temp\cc3nsn9g.ltrans6.ltrans.o
 .debug_abbrev  0x00001638      0x226 C:\Users\Linny\AppData\Local\Temp\cc3nsn9g.ltrans7.ltrans.o
 .debug_abbrev  0x0000185e      0xc37 C:\Users\Linny\AppData\Local\Temp\cc0QidYf.debug.temp.o
 .debug_abbrev  0x00002495      0x970 C:\Users\Linny\AppData\Local\Temp\ccqHmLQ6.debug.temp.o
 .debug_abbrev  0x00002e05     0x1024 C:\Users\Linny\AppData\Local\Temp\ccAFu9EX.debug.temp.o
 .debug_abbrev  0x00003e29      0xe08 C:\Users\Linny\AppData\Local\Temp\ccyrT7GO.debug.temp.o
 .debug_abbrev  0x00004c31      0xff5 C:\Users\Linny\AppData\Local\Temp\cc803ODF.debug.temp.o
 .debug_abbrev  0x00005c26      0xd75 C:\Users\Linny\AppData\Local\Temp\ccyrM6Nw.debug.temp.o
 .debug_abbrev  0x0000699b      0xeef C:\Users\Linny\AppData\Local\Temp\ccAJmFTn.debug.temp.o
 .debug_abbrev  0x0000788a      0xd1b C:\Users\Linny\AppData\Local\Temp\ccCbYndf.debug.temp.o
 .debug_abbrev  0x000085a5      0xfb6 C:\Users\Linny\AppData\Local\Temp\ccIfMjv5.debug.temp.o
 .debug_abbrev  0x0000955b      0xe8c C:\Users\Linny\AppData\Local\Temp\ccMULdKV.debug.temp.o
 .debug_abbrev  0x0000a3e7      0xcfb C:\Users\Linny\AppData\Local\Temp\ccA9fyUL.debug.temp.o
 .debug_abbrev  0x0000b0e2      0xec1 C:\Users\Linny\AppData\Local\Temp\cciTpTiC.debug.temp.o
 .debug_abbrev  0x0000bfa3      0xe0e C:\Users\Linny\AppData\Local\Temp\ccCAm7Ps.debug.temp.o
 .debug_abbrev  0x0000cdb1      0xc4a C:\Users\Linny\AppData\Local\Temp\ccqpvbij.debug.temp.o
 .debug_abbrev  0x0000d9fb      0xb59 C:\Users\Linny\AppData\Local\Temp\cc2voHX9.debug.temp.o
 .debug_abbrev  0x0000e554      0xfd0 C:\Users\Linny\AppData\Local\Temp\ccsikEy0.debug.temp.o
 .debug_abbrev  0x0000f524      0xfad C:\Users\Linny\AppData\Local\Temp\cccb4VcQ.debug.temp.o
 .debug_abbrev  0x000104d1      0xf1a C:\Users\Linny\AppData\Local\Temp\ccQEmN1F.debug.temp.o
 .debug_abbrev  0x000113eb      0x7f1 C:\Users\Linny\AppData\Local\Temp\cccFS4Lv.debug.temp.o
 .debug_abbrev  0x00011bdc      0xef7 C:\Users\Linny\AppData\Local\Temp\cco0pOJl.debug.temp.o
 .debug_abbrev  0x00012ad3      0xe0c C:\Users\Linny\AppData\Local\Temp\ccq8mxDb.debug.temp.o
 .debug_abbrev  0x000138df      0xb7b C:\Users\Linny\AppData\Local\Temp\ccW107F1.debug.temp.o
 .debug_abbrev  0x0001445a      0xc8a C:\Users\Linny\AppData\Local\Temp\ccGQ8ArV.debug.temp.o
 .debug_abbrev  0x000150e4      0xddf C:\Users\Linny\AppData\Local\Temp\ccafLu8O.debug.temp.o
 .debug_abbrev  0x00015ec3      0xb4e C:\Users\Linny\AppData\Local\Temp\ccy82o3I.debug.temp.o
 .debug_abbrev  0x00016a11      0xe86 C:\Users\Linny\AppData\Local\Temp\ccsQib7C.debug.temp.o
 .debug_abbrev  0x00017897      0xa11 C:\Users\Linny\AppData\Local\Temp\ccsRm57w.debug.temp.o
 .debug_abbrev  0x000182a8      0xa11 C:\Users\Linny\AppData\Local\Temp\ccidsrmr.debug.temp.o
 .debug_abbrev  0x00018cb9      0x9fd C:\Users\Linny\AppData\Local\Temp\ccO2tdwl.debug.temp.o
 .debug_abbrev  0x000196b6      0x9fd C:\Users\Linny\AppData\Local\Temp\ccQgYlJe.debug.temp.o
 .debug_abbrev  0x0001a0b3     0x104c C:\Users\Linny\AppData\Local\Temp\ccaUoM47.debug.temp.o
 .debug_abbrev  0x0001b0ff      0xfba C:\Users\Linny\AppData\Local\Temp\ccc42Cl1.debug.temp.o
 .debug_abbrev  0x0001c0b9      0xfdd C:\Users\Linny\AppData\Local\Temp\cc4yIVPU.debug.temp.o
 .debug_abbrev  0x0001d096      0xe08 C:\Users\Linny\AppData\Local\Temp\ccA8xFtO.debug.temp.o
 .debug_abbrev  0x0001de9e      0xabe C:\Users\Linny\AppData\Local\Temp\ccMbkP2H.debug.temp.o
 .debug_abbrev  0x0001e95c      0xbc8 C:\Users\Linny\AppData\Local\Temp\ccE07sGA.debug.temp.o
 .debug_abbrev  0x0001f524      0xbbe C:\Users\Linny\AppData\Local\Temp\ccgpqxft.debug.temp.o
 .debug_abbrev  0x000200e2      0xf4e C:\Users\Linny\AppData\Local\Temp\ccMioC2l.debug.temp.o
 .debug_abbrev  0x00021030      0xdca C:\Users\Linny\AppData\Local\Temp\cc0Iz7Ke.debug.temp.o
 .debug_abbrev  0x00021dfa      0xb05 C:\Users\Linny\AppData\Local\Temp\cc2qv4G7.debug.temp.o
 .debug_abbrev  0x000228ff      0xe12 C:\Users\Linny\AppData\Local\Temp\ccsHckL0.debug.temp.o
 .debug_abbrev  0x00023711      0x9c4 C:\Users\Linny\AppData\Local\Temp\ccAu7ZKT.debug.temp.o
 .debug_abbrev  0x000240d5      0xebe C:\Users\Linny\AppData\Local\Temp\ccaAW1NL.debug.temp.o
 .debug_abbrev  0x00024f93     0x1110 C:\Users\Linny\AppData\Local\Temp\ccscZtMD.debug.temp.o
 .debug_abbrev  0x000260a3      0xb26 C:\Users\Linny\AppData\Local\Temp\ccMvLUHv.debug.temp.o
 .debug_abbrev  0x00026bc9      0xc7a C:\Users\Linny\AppData\Local\Temp\ccYImWQn.debug.temp.o
 .debug_abbrev  0x00027843      0xcfd C:\Users\Linny\AppData\Local\Temp\ccO07o9f.debug.temp.o
 .debug_abbrev  0x00028540      0xa1b C:\Users\Linny\AppData\Local\Temp\cckgj9m8.debug.temp.o
 .debug_abbrev  0x00028f5b     0x10a0 C:\Users\Linny\AppData\Local\Temp\ccGm2tO0.debug.temp.o
 .debug_abbrev  0x00029ffb      0x81e C:\Users\Linny\AppData\Local\Temp\ccAaZwaT.debug.temp.o
 .debug_abbrev  0x0002a819      0x8f2 C:\Users\Linny\AppData\Local\Temp\ccGW10bP.debug.temp.o
 .debug_abbrev  0x0002b10b      0xa99 C:\Users\Linny\AppData\Local\Temp\ccMI4udL.debug.temp.o
 .debug_abbrev  0x0002bba4      0xa89 C:\Users\Linny\AppData\Local\Temp\ccIlFzsH.debug.temp.o
 .debug_abbrev  0x0002c62d      0xdfc C:\Users\Linny\AppData\Local\Temp\ccwwxdSD.debug.temp.o
 .debug_abbrev  0x0002d429      0xefc C:\Users\Linny\AppData\Local\Temp\ccwXF1ft.debug.temp.o
 .debug_abbrev  0x0002e325      0xaa9 C:\Users\Linny\AppData\Local\Temp\ccYImjNo.debug.temp.o
 .debug_abbrev  0x0002edce      0xda4 C:\Users\Linny\AppData\Local\Temp\cc0eyjfk.debug.temp.o
 .debug_abbrev  0x0002fb72      0xe2a C:\Users\Linny\AppData\Local\Temp\ccyzHbQf.debug.temp.o
 .debug_abbrev  0x0003099c      0xf5f C:\Users\Linny\AppData\Local\Temp\cc40AdFb.debug.temp.o
 .debug_abbrev  0x000318fb      0x7dc C:\Users\Linny\AppData\Local\Temp\ccgqUwp7.debug.temp.o
 .debug_abbrev  0x000320d7      0xd3f C:\Users\Linny\AppData\Local\Temp\cciGLqn3.debug.temp.o
 .debug_abbrev  0x00032e16      0xb66 C:\Users\Linny\AppData\Local\Temp\ccmDmjiZ.debug.temp.o
 .debug_abbrev  0x0003397c      0x59d C:\Users\Linny\AppData\Local\Temp\ccymOXbU.debug.temp.o
 .debug_abbrev  0x00033f19      0x14c C:\Users\Linny\AppData\Local\Temp\ccAWNcjP.debug.temp.o
 .debug_abbrev  0x00034065      0x9e2 C:\Users\Linny\AppData\Local\Temp\cciudJlK.debug.temp.o
 .debug_abbrev  0x00034a47      0x7d4 C:\Users\Linny\AppData\Local\Temp\ccqaoNDA.debug.temp.o
 .debug_abbrev  0x0003521b      0xb32 C:\Users\Linny\AppData\Local\Temp\ccwgzCOv.debug.temp.o
 .debug_abbrev  0x00035d4d      0x228 C:\Users\Linny\AppData\Local\Temp\ccmAJT8q.debug.temp.o
 .debug_abbrev  0x00035f75      0x822 C:\Users\Linny\AppData\Local\Temp\cccUTatm.debug.temp.o
 .debug_abbrev  0x00036797      0x1a4 C:\Users\Linny\AppData\Local\Temp\ccgDtmQg.debug.temp.o
 .debug_abbrev  0x0003693b       0xf4 C:\Users\Linny\AppData\Local\Temp\ccq9kxab.debug.temp.o
 .debug_abbrev  0x00036a2f      0x1c6 C:\Users\Linny\AppData\Local\Temp\ccottiI5.debug.temp.o
 .debug_abbrev  0x00036bf5      0x174 C:\Users\Linny\AppData\Local\Temp\ccANA3XJ.debug.temp.o
 .debug_abbrev  0x00036d69      0x1b1 C:\Users\Linny\AppData\Local\Temp\ccI0Q7NE.debug.temp.o
 .debug_abbrev  0x00036f1a      0x266 C:\Users\Linny\AppData\Local\Temp\ccoVkUyz.debug.temp.o
 .debug_abbrev  0x00037180       0xed C:\Users\Linny\AppData\Local\Temp\ccsAih3x.debug.temp.o
 .debug_abbrev  0x0003726d      0x187 C:\Users\Linny\AppData\Local\Temp\ccy6DpGt.debug.temp.o
 .debug_abbrev  0x000373f4      0xbc1 bn_sprites_manager.bn_iwram.o
 .debug_abbrev  0x00037fb5      0x672 bn_hw_common.bn_noflto.o
 .debug_abbrev  0x00038627      0x1e0 bn_hw_game_pak.bn_ewram.o
 .debug_abbrev  0x00038807      0x76c bn_hw_gpio.bn_noflto.o
 .debug_abbrev  0x00038f73      0x569 bn_hw_palettes.bn_iwram.o
 .debug_abbrev  0x000394dc      0x282 bn_hw_sprite_tiles.bn_iwram.o
 .debug_abbrev  0x0003975e      0x19f bn_hw_sram.bn_noflto.o
 .debug_abbrev  0x000398fd       0x14 bn_hw_bg_blocks.o
 .debug_abbrev  0x00039911       0x14 bn_hw_core.o
 .debug_abbrev  0x00039925       0x14 bn_hw_hblank_effects.o
 .debug_abbrev  0x00039939       0x14 bn_hw_palettes_asm.o
 .debug_abbrev  0x0003994d       0x28 clr_blend_fast.o
 .debug_abbrev  0x00039975       0x14 clr_fade_fast.o
 .debug_abbrev  0x00039989       0x26 tonc_bios.o
 .debug_abbrev  0x000399af       0x26 tonc_memset.o
 .debug_abbrev  0x000399d5       0x14 irq_handler.o
 .debug_abbrev  0x000399e9       0x14 posprintf.o
 .debug_abbrev  0x000399fd       0x12 lmul.o
 .debug_abbrev  0x00039a0f       0x12 memcpy.o
 .debug_abbrev  0x00039a21       0x12 memmove.o
 .debug_abbrev  0x00039a33       0x12 memset.o
 .debug_abbrev  0x00039a45       0x12 rmemcpy.o
 .debug_abbrev  0x00039a57       0x14 sdiv32.o
 .debug_abbrev  0x00039a6b       0x14 sqrt32.o
 .debug_abbrev  0x00039a7f       0x14 udiv32.o
 .debug_abbrev  0x00039a93       0x14 huffman.o
 .debug_abbrev  0x00039aa7       0x14 lz77.o
 .debug_abbrev  0x00039abb       0x14 running_length.o
 .debug_abbrev  0x00039acf       0x14 mm_effect.o
 .debug_abbrev  0x00039ae3       0x14 mm_main.o
 .debug_abbrev  0x00039af7       0x12 mm_mas.o
 .debug_abbrev  0x00039b09       0x14 mm_mas_arm.o
 .debug_abbrev  0x00039b1d       0x12 mm_main_gba.o
 .debug_abbrev  0x00039b2f       0x12 mm_mixer_gba.o

.debug_line     0x00000000    0xb6c39
 *(.debug_line)
 .debug_line    0x00000000    0x159f1 C:\Users\Linny\AppData\Local\Temp\cc3nsn9g.ltrans0.ltrans.o
 .debug_line    0x000159f1     0xc227 C:\Users\Linny\AppData\Local\Temp\cc3nsn9g.ltrans1.ltrans.o
 .debug_line    0x00021c18    0x11738 C:\Users\Linny\AppData\Local\Temp\cc3nsn9g.ltrans2.ltrans.o
 .debug_line    0x00033350    0x114c3 C:\Users\Linny\AppData\Local\Temp\cc3nsn9g.ltrans3.ltrans.o
 .debug_line    0x00044813    0x1311d C:\Users\Linny\AppData\Local\Temp\cc3nsn9g.ltrans4.ltrans.o
 .debug_line    0x00057930     0xe8ba C:\Users\Linny\AppData\Local\Temp\cc3nsn9g.ltrans5.ltrans.o
 .debug_line    0x000661ea     0xfa82 C:\Users\Linny\AppData\Local\Temp\cc3nsn9g.ltrans6.ltrans.o
 .debug_line    0x00075c6c     0xb948 C:\Users\Linny\AppData\Local\Temp\cc3nsn9g.ltrans7.ltrans.o
 .debug_line    0x000815b4      0xaaf C:\Users\Linny\AppData\Local\Temp\cc0QidYf.debug.temp.o
 .debug_line    0x00082063      0x720 C:\Users\Linny\AppData\Local\Temp\ccqHmLQ6.debug.temp.o
 .debug_line    0x00082783     0x101c C:\Users\Linny\AppData\Local\Temp\ccAFu9EX.debug.temp.o
 .debug_line    0x0008379f      0xb3b C:\Users\Linny\AppData\Local\Temp\ccyrT7GO.debug.temp.o
 .debug_line    0x000842da     0x1128 C:\Users\Linny\AppData\Local\Temp\cc803ODF.debug.temp.o
 .debug_line    0x00085402      0xc9f C:\Users\Linny\AppData\Local\Temp\ccyrM6Nw.debug.temp.o
 .debug_line    0x000860a1      0xfbc C:\Users\Linny\AppData\Local\Temp\ccAJmFTn.debug.temp.o
 .debug_line    0x0008705d      0xb60 C:\Users\Linny\AppData\Local\Temp\ccCbYndf.debug.temp.o
 .debug_line    0x00087bbd      0xe10 C:\Users\Linny\AppData\Local\Temp\ccIfMjv5.debug.temp.o
 .debug_line    0x000889cd      0xef1 C:\Users\Linny\AppData\Local\Temp\ccMULdKV.debug.temp.o
 .debug_line    0x000898be      0x96c C:\Users\Linny\AppData\Local\Temp\ccA9fyUL.debug.temp.o
 .debug_line    0x0008a22a      0xd61 C:\Users\Linny\AppData\Local\Temp\cciTpTiC.debug.temp.o
 .debug_line    0x0008af8b      0xacb C:\Users\Linny\AppData\Local\Temp\ccCAm7Ps.debug.temp.o
 .debug_line    0x0008ba56      0x915 C:\Users\Linny\AppData\Local\Temp\ccqpvbij.debug.temp.o
 .debug_line    0x0008c36b      0x9ed C:\Users\Linny\AppData\Local\Temp\cc2voHX9.debug.temp.o
 .debug_line    0x0008cd58      0xd82 C:\Users\Linny\AppData\Local\Temp\ccsikEy0.debug.temp.o
 .debug_line    0x0008dada     0x10af C:\Users\Linny\AppData\Local\Temp\cccb4VcQ.debug.temp.o
 .debug_line    0x0008eb89     0x10e2 C:\Users\Linny\AppData\Local\Temp\ccQEmN1F.debug.temp.o
 .debug_line    0x0008fc6b      0x77f C:\Users\Linny\AppData\Local\Temp\cccFS4Lv.debug.temp.o
 .debug_line    0x000903ea      0xd98 C:\Users\Linny\AppData\Local\Temp\cco0pOJl.debug.temp.o
 .debug_line    0x00091182      0xcc1 C:\Users\Linny\AppData\Local\Temp\ccq8mxDb.debug.temp.o
 .debug_line    0x00091e43      0xb25 C:\Users\Linny\AppData\Local\Temp\ccW107F1.debug.temp.o
 .debug_line    0x00092968      0x990 C:\Users\Linny\AppData\Local\Temp\ccGQ8ArV.debug.temp.o
 .debug_line    0x000932f8      0xa3b C:\Users\Linny\AppData\Local\Temp\ccafLu8O.debug.temp.o
 .debug_line    0x00093d33      0xa70 C:\Users\Linny\AppData\Local\Temp\ccy82o3I.debug.temp.o
 .debug_line    0x000947a3      0xd3f C:\Users\Linny\AppData\Local\Temp\ccsQib7C.debug.temp.o
 .debug_line    0x000954e2      0xc17 C:\Users\Linny\AppData\Local\Temp\ccsRm57w.debug.temp.o
 .debug_line    0x000960f9      0xbe6 C:\Users\Linny\AppData\Local\Temp\ccidsrmr.debug.temp.o
 .debug_line    0x00096cdf      0xc18 C:\Users\Linny\AppData\Local\Temp\ccO2tdwl.debug.temp.o
 .debug_line    0x000978f7      0xc81 C:\Users\Linny\AppData\Local\Temp\ccQgYlJe.debug.temp.o
 .debug_line    0x00098578      0xdd1 C:\Users\Linny\AppData\Local\Temp\ccaUoM47.debug.temp.o
 .debug_line    0x00099349      0xd7c C:\Users\Linny\AppData\Local\Temp\ccc42Cl1.debug.temp.o
 .debug_line    0x0009a0c5      0xedc C:\Users\Linny\AppData\Local\Temp\cc4yIVPU.debug.temp.o
 .debug_line    0x0009afa1      0xaa4 C:\Users\Linny\AppData\Local\Temp\ccA8xFtO.debug.temp.o
 .debug_line    0x0009ba45      0x93d C:\Users\Linny\AppData\Local\Temp\ccMbkP2H.debug.temp.o
 .debug_line    0x0009c382      0x8ea C:\Users\Linny\AppData\Local\Temp\ccE07sGA.debug.temp.o
 .debug_line    0x0009cc6c      0xae4 C:\Users\Linny\AppData\Local\Temp\ccgpqxft.debug.temp.o
 .debug_line    0x0009d750      0xf3a C:\Users\Linny\AppData\Local\Temp\ccMioC2l.debug.temp.o
 .debug_line    0x0009e68a      0xddf C:\Users\Linny\AppData\Local\Temp\cc0Iz7Ke.debug.temp.o
 .debug_line    0x0009f469      0x7b0 C:\Users\Linny\AppData\Local\Temp\cc2qv4G7.debug.temp.o
 .debug_line    0x0009fc19      0xa00 C:\Users\Linny\AppData\Local\Temp\ccsHckL0.debug.temp.o
 .debug_line    0x000a0619      0x6a4 C:\Users\Linny\AppData\Local\Temp\ccAu7ZKT.debug.temp.o
 .debug_line    0x000a0cbd      0xbce C:\Users\Linny\AppData\Local\Temp\ccaAW1NL.debug.temp.o
 .debug_line    0x000a188b      0xdb7 C:\Users\Linny\AppData\Local\Temp\ccscZtMD.debug.temp.o
 .debug_line    0x000a2642      0x780 C:\Users\Linny\AppData\Local\Temp\ccMvLUHv.debug.temp.o
 .debug_line    0x000a2dc2      0xab6 C:\Users\Linny\AppData\Local\Temp\ccYImWQn.debug.temp.o
 .debug_line    0x000a3878      0xcc8 C:\Users\Linny\AppData\Local\Temp\ccO07o9f.debug.temp.o
 .debug_line    0x000a4540      0x79f C:\Users\Linny\AppData\Local\Temp\cckgj9m8.debug.temp.o
 .debug_line    0x000a4cdf     0x1f87 C:\Users\Linny\AppData\Local\Temp\ccGm2tO0.debug.temp.o
 .debug_line    0x000a6c66      0x6a8 C:\Users\Linny\AppData\Local\Temp\ccAaZwaT.debug.temp.o
 .debug_line    0x000a730e      0x6af C:\Users\Linny\AppData\Local\Temp\ccGW10bP.debug.temp.o
 .debug_line    0x000a79bd      0x825 C:\Users\Linny\AppData\Local\Temp\ccMI4udL.debug.temp.o
 .debug_line    0x000a81e2      0x8c6 C:\Users\Linny\AppData\Local\Temp\ccIlFzsH.debug.temp.o
 .debug_line    0x000a8aa8      0xb0b C:\Users\Linny\AppData\Local\Temp\ccwwxdSD.debug.temp.o
 .debug_line    0x000a95b3      0xae2 C:\Users\Linny\AppData\Local\Temp\ccwXF1ft.debug.temp.o
 .debug_line    0x000aa095      0x749 C:\Users\Linny\AppData\Local\Temp\ccYImjNo.debug.temp.o
 .debug_line    0x000aa7de      0xa04 C:\Users\Linny\AppData\Local\Temp\cc0eyjfk.debug.temp.o
 .debug_line    0x000ab1e2      0x96e C:\Users\Linny\AppData\Local\Temp\ccyzHbQf.debug.temp.o
 .debug_line    0x000abb50      0xc9e C:\Users\Linny\AppData\Local\Temp\cc40AdFb.debug.temp.o
 .debug_line    0x000ac7ee      0x62f C:\Users\Linny\AppData\Local\Temp\ccgqUwp7.debug.temp.o
 .debug_line    0x000ace1d      0xb1a C:\Users\Linny\AppData\Local\Temp\cciGLqn3.debug.temp.o
 .debug_line    0x000ad937      0x8cd C:\Users\Linny\AppData\Local\Temp\ccmDmjiZ.debug.temp.o
 .debug_line    0x000ae204      0x465 C:\Users\Linny\AppData\Local\Temp\ccymOXbU.debug.temp.o
 .debug_line    0x000ae669      0x281 C:\Users\Linny\AppData\Local\Temp\ccAWNcjP.debug.temp.o
 .debug_line    0x000ae8ea      0x735 C:\Users\Linny\AppData\Local\Temp\cciudJlK.debug.temp.o
 .debug_line    0x000af01f      0x6c0 C:\Users\Linny\AppData\Local\Temp\ccqaoNDA.debug.temp.o
 .debug_line    0x000af6df      0x868 C:\Users\Linny\AppData\Local\Temp\ccwgzCOv.debug.temp.o
 .debug_line    0x000aff47      0x311 C:\Users\Linny\AppData\Local\Temp\ccmAJT8q.debug.temp.o
 .debug_line    0x000b0258      0x6a1 C:\Users\Linny\AppData\Local\Temp\cccUTatm.debug.temp.o
 .debug_line    0x000b08f9      0x244 C:\Users\Linny\AppData\Local\Temp\ccgDtmQg.debug.temp.o
 .debug_line    0x000b0b3d      0x10d C:\Users\Linny\AppData\Local\Temp\ccq9kxab.debug.temp.o
 .debug_line    0x000b0c4a      0x110 C:\Users\Linny\AppData\Local\Temp\ccottiI5.debug.temp.o
 .debug_line    0x000b0d5a      0x118 C:\Users\Linny\AppData\Local\Temp\ccANA3XJ.debug.temp.o
 .debug_line    0x000b0e72      0x114 C:\Users\Linny\AppData\Local\Temp\ccI0Q7NE.debug.temp.o
 .debug_line    0x000b0f86      0x157 C:\Users\Linny\AppData\Local\Temp\ccoVkUyz.debug.temp.o
 .debug_line    0x000b10dd      0x17e C:\Users\Linny\AppData\Local\Temp\ccsAih3x.debug.temp.o
 .debug_line    0x000b125b      0x17b C:\Users\Linny\AppData\Local\Temp\ccy6DpGt.debug.temp.o
 .debug_line    0x000b13d6     0x1018 bn_sprites_manager.bn_iwram.o
 .debug_line    0x000b23ee      0x68c bn_hw_common.bn_noflto.o
 .debug_line    0x000b2a7a      0x4f8 bn_hw_game_pak.bn_ewram.o
 .debug_line    0x000b2f72      0x69f bn_hw_gpio.bn_noflto.o
 .debug_line    0x000b3611      0x746 bn_hw_palettes.bn_iwram.o
 .debug_line    0x000b3d57      0x411 bn_hw_sprite_tiles.bn_iwram.o
 .debug_line    0x000b4168      0x382 bn_hw_sram.bn_noflto.o
 .debug_line    0x000b44ea       0xa4 bn_hw_bg_blocks.o
 .debug_line    0x000b458e       0x8e bn_hw_core.o
 .debug_line    0x000b461c       0xbd bn_hw_hblank_effects.o
 .debug_line    0x000b46d9       0x94 bn_hw_palettes_asm.o
 .debug_line    0x000b476d       0xb4 clr_blend_fast.o
 .debug_line    0x000b4821       0xb3 clr_fade_fast.o
 .debug_line    0x000b48d4      0x2cf tonc_bios.o
 .debug_line    0x000b4ba3       0xd2 tonc_memset.o
 .debug_line    0x000b4c75       0xef irq_handler.o
 .debug_line    0x000b4d64      0x1c9 posprintf.o
 .debug_line    0x000b4f2d       0xcf lmul.o
 .debug_line    0x000b4ffc       0xe5 memcpy.o
 .debug_line    0x000b50e1       0xc5 memmove.o
 .debug_line    0x000b51a6       0xef memset.o
 .debug_line    0x000b5295       0xd2 rmemcpy.o
 .debug_line    0x000b5367       0xa0 sdiv32.o
 .debug_line    0x000b5407       0xcc sqrt32.o
 .debug_line    0x000b54d3      0x109 udiv32.o
 .debug_line    0x000b55dc       0xbc huffman.o
 .debug_line    0x000b5698      0x102 lz77.o
 .debug_line    0x000b579a       0xda running_length.o
 .debug_line    0x000b5874      0x22b mm_effect.o
 .debug_line    0x000b5a9f       0x9c mm_main.o
 .debug_line    0x000b5b3b      0xa8b mm_mas.o
 .debug_line    0x000b65c6      0x211 mm_mas_arm.o
 .debug_line    0x000b67d7      0x12f mm_main_gba.o
 .debug_line    0x000b6906      0x333 mm_mixer_gba.o

.debug_frame    0x00000000     0x3c30
 *(.debug_frame)
 .debug_frame   0x00000000      0x82c C:\Users\Linny\AppData\Local\Temp\cc3nsn9g.ltrans0.ltrans.o
 .debug_frame   0x0000082c      0x3d4 C:\Users\Linny\AppData\Local\Temp\cc3nsn9g.ltrans1.ltrans.o
 .debug_frame   0x00000c00      0x350 C:\Users\Linny\AppData\Local\Temp\cc3nsn9g.ltrans2.ltrans.o
 .debug_frame   0x00000f50      0x544 C:\Users\Linny\AppData\Local\Temp\cc3nsn9g.ltrans3.ltrans.o
 .debug_frame   0x00001494      0x47c C:\Users\Linny\AppData\Local\Temp\cc3nsn9g.ltrans4.ltrans.o
 .debug_frame   0x00001910      0xadc C:\Users\Linny\AppData\Local\Temp\cc3nsn9g.ltrans5.ltrans.o
 .debug_frame   0x000023ec     0x11cc C:\Users\Linny\AppData\Local\Temp\cc3nsn9g.ltrans6.ltrans.o
 .debug_frame   0x000035b8      0x3f8 C:\Users\Linny\AppData\Local\Temp\cc3nsn9g.ltrans7.ltrans.o
 .debug_frame   0x000039b0       0x94 bn_sprites_manager.bn_iwram.o
 .debug_frame   0x00003a44       0xec bn_hw_common.bn_noflto.o
 .debug_frame   0x00003b30       0x34 bn_hw_game_pak.bn_ewram.o
 .debug_frame   0x00003b64       0x20 bn_hw_gpio.bn_noflto.o
 .debug_frame   0x00003b84       0x48 bn_hw_palettes.bn_iwram.o
 .debug_frame   0x00003bcc       0x44 bn_hw_sprite_tiles.bn_iwram.o
 .debug_frame   0x00003c10       0x20 bn_hw_sram.bn_noflto.o

.debug_str      0x00000000    0xf5a69
 *(.debug_str)
 .debug_str     0x00000000      0x893 C:\Users\Linny\AppData\Local\Temp\cc3nsn9g.ltrans0.ltrans.o
 .debug_str     0x00000000      0x4d0 C:\Users\Linny\AppData\Local\Temp\cc3nsn9g.ltrans1.ltrans.o
 .debug_str     0x00000000      0x54f C:\Users\Linny\AppData\Local\Temp\cc3nsn9g.ltrans2.ltrans.o
 .debug_str     0x00000000      0x63e C:\Users\Linny\AppData\Local\Temp\cc3nsn9g.ltrans3.ltrans.o
 .debug_str     0x00000000      0x736 C:\Users\Linny\AppData\Local\Temp\cc3nsn9g.ltrans4.ltrans.o
 .debug_str     0x00000000      0x780 C:\Users\Linny\AppData\Local\Temp\cc3nsn9g.ltrans5.ltrans.o
 .debug_str     0x00000000     0x136d C:\Users\Linny\AppData\Local\Temp\cc3nsn9g.ltrans6.ltrans.o
 .debug_str     0x00000000      0xca7 C:\Users\Linny\AppData\Local\Temp\cc3nsn9g.ltrans7.ltrans.o
 .debug_str     0x00000000    0x1671c C:\Users\Linny\AppData\Local\Temp\cc0QidYf.debug.temp.o
 .debug_str     0x00000000     0x57b0 C:\Users\Linny\AppData\Local\Temp\ccqHmLQ6.debug.temp.o
 .debug_str     0x00000000    0x1f264 C:\Users\Linny\AppData\Local\Temp\ccAFu9EX.debug.temp.o
 .debug_str     0x00000000    0x1460a C:\Users\Linny\AppData\Local\Temp\ccyrT7GO.debug.temp.o
 .debug_str     0x00000000    0x4b144 C:\Users\Linny\AppData\Local\Temp\cc803ODF.debug.temp.o
 .debug_str     0x00000000    0x1a8ac C:\Users\Linny\AppData\Local\Temp\ccyrM6Nw.debug.temp.o
 .debug_str     0x00000000    0x33af8 C:\Users\Linny\AppData\Local\Temp\ccAJmFTn.debug.temp.o
 .debug_str     0x00000000    0x13e5c C:\Users\Linny\AppData\Local\Temp\ccCbYndf.debug.temp.o
 .debug_str     0x00000000    0x28d8a C:\Users\Linny\AppData\Local\Temp\ccIfMjv5.debug.temp.o
 .debug_str     0x00000000    0x36ee4 C:\Users\Linny\AppData\Local\Temp\ccMULdKV.debug.temp.o
 .debug_str     0x00000000    0x14f13 C:\Users\Linny\AppData\Local\Temp\ccA9fyUL.debug.temp.o
 .debug_str     0x00000000    0x2b773 C:\Users\Linny\AppData\Local\Temp\cciTpTiC.debug.temp.o
 .debug_str     0x00000000    0x152e2 C:\Users\Linny\AppData\Local\Temp\ccCAm7Ps.debug.temp.o
 .debug_str     0x00000000    0x10b85 C:\Users\Linny\AppData\Local\Temp\ccqpvbij.debug.temp.o
 .debug_str     0x00000000    0x105c0 C:\Users\Linny\AppData\Local\Temp\cc2voHX9.debug.temp.o
 .debug_str     0x00000000    0x267e8 C:\Users\Linny\AppData\Local\Temp\ccsikEy0.debug.temp.o
 .debug_str     0x00000000    0x3dffc C:\Users\Linny\AppData\Local\Temp\cccb4VcQ.debug.temp.o
 .debug_str     0x00000000    0x42496 C:\Users\Linny\AppData\Local\Temp\ccQEmN1F.debug.temp.o
 .debug_str     0x00000000     0x4341 C:\Users\Linny\AppData\Local\Temp\cccFS4Lv.debug.temp.o
 .debug_str     0x00000000    0x2ad5d C:\Users\Linny\AppData\Local\Temp\cco0pOJl.debug.temp.o
 .debug_str     0x00000000    0x256bc C:\Users\Linny\AppData\Local\Temp\ccq8mxDb.debug.temp.o
 .debug_str     0x00000000    0x106b4 C:\Users\Linny\AppData\Local\Temp\ccW107F1.debug.temp.o
 .debug_str     0x00000000    0x112de C:\Users\Linny\AppData\Local\Temp\ccGQ8ArV.debug.temp.o
 .debug_str     0x00000000    0x12903 C:\Users\Linny\AppData\Local\Temp\ccafLu8O.debug.temp.o
 .debug_str     0x00000000    0x11ee1 C:\Users\Linny\AppData\Local\Temp\ccy82o3I.debug.temp.o
 .debug_str     0x00000000    0x24e2f C:\Users\Linny\AppData\Local\Temp\ccsQib7C.debug.temp.o
 .debug_str     0x00000000     0xc292 C:\Users\Linny\AppData\Local\Temp\ccsRm57w.debug.temp.o
 .debug_str     0x00000000     0xc269 C:\Users\Linny\AppData\Local\Temp\ccidsrmr.debug.temp.o
 .debug_str     0x00000000     0xc3a3 C:\Users\Linny\AppData\Local\Temp\ccO2tdwl.debug.temp.o
 .debug_str     0x00000000     0xc60c C:\Users\Linny\AppData\Local\Temp\ccQgYlJe.debug.temp.o
 .debug_str     0x00000000    0x28672 C:\Users\Linny\AppData\Local\Temp\ccaUoM47.debug.temp.o
 .debug_str     0x00000000    0x274cc C:\Users\Linny\AppData\Local\Temp\ccc42Cl1.debug.temp.o
 .debug_str     0x00000000    0x2825d C:\Users\Linny\AppData\Local\Temp\cc4yIVPU.debug.temp.o
 .debug_str     0x00000000    0x14801 C:\Users\Linny\AppData\Local\Temp\ccA8xFtO.debug.temp.o
 .debug_str     0x00000000     0xd9d7 C:\Users\Linny\AppData\Local\Temp\ccMbkP2H.debug.temp.o
 .debug_str     0x00000000     0xd159 C:\Users\Linny\AppData\Local\Temp\ccE07sGA.debug.temp.o
 .debug_str     0x00000000     0xdcd0 C:\Users\Linny\AppData\Local\Temp\ccgpqxft.debug.temp.o
 .debug_str     0x00000000    0x27e72 C:\Users\Linny\AppData\Local\Temp\ccMioC2l.debug.temp.o
 .debug_str     0x00000000    0x1b7aa C:\Users\Linny\AppData\Local\Temp\cc0Iz7Ke.debug.temp.o
 .debug_str     0x00000000     0xb79d C:\Users\Linny\AppData\Local\Temp\cc2qv4G7.debug.temp.o
 .debug_str     0x00000000     0xdfb2 C:\Users\Linny\AppData\Local\Temp\ccsHckL0.debug.temp.o
 .debug_str     0x00000000     0x4b3c C:\Users\Linny\AppData\Local\Temp\ccAu7ZKT.debug.temp.o
 .debug_str     0x00000000    0x1860f C:\Users\Linny\AppData\Local\Temp\ccaAW1NL.debug.temp.o
 .debug_str     0x00000000    0x1ee93 C:\Users\Linny\AppData\Local\Temp\ccscZtMD.debug.temp.o
 .debug_str     0x00000000     0x5e64 C:\Users\Linny\AppData\Local\Temp\ccMvLUHv.debug.temp.o
 .debug_str     0x00000000     0x768a C:\Users\Linny\AppData\Local\Temp\ccYImWQn.debug.temp.o
 .debug_str     0x00000000    0x19a06 C:\Users\Linny\AppData\Local\Temp\ccO07o9f.debug.temp.o
 .debug_str     0x00000000     0x538c C:\Users\Linny\AppData\Local\Temp\cckgj9m8.debug.temp.o
 .debug_str     0x00000000    0x4df56 C:\Users\Linny\AppData\Local\Temp\ccGm2tO0.debug.temp.o
 .debug_str     0x00000000     0x277f C:\Users\Linny\AppData\Local\Temp\ccAaZwaT.debug.temp.o
 .debug_str     0x00000000     0x39bc C:\Users\Linny\AppData\Local\Temp\ccGW10bP.debug.temp.o
 .debug_str     0x00000000     0x5b64 C:\Users\Linny\AppData\Local\Temp\ccMI4udL.debug.temp.o
 .debug_str     0x00000000     0x537d C:\Users\Linny\AppData\Local\Temp\ccIlFzsH.debug.temp.o
 .debug_str     0x00000000     0xe639 C:\Users\Linny\AppData\Local\Temp\ccwwxdSD.debug.temp.o
 .debug_str     0x00000000    0x12161 C:\Users\Linny\AppData\Local\Temp\ccwXF1ft.debug.temp.o
 .debug_str     0x00000000     0xa673 C:\Users\Linny\AppData\Local\Temp\ccYImjNo.debug.temp.o
 .debug_str     0x00000000    0x13383 C:\Users\Linny\AppData\Local\Temp\cc0eyjfk.debug.temp.o
 .debug_str     0x00000000     0xd7fd C:\Users\Linny\AppData\Local\Temp\ccyzHbQf.debug.temp.o
 .debug_str     0x00000000    0x1b8b9 C:\Users\Linny\AppData\Local\Temp\cc40AdFb.debug.temp.o
 .debug_str     0x00000000     0x4276 C:\Users\Linny\AppData\Local\Temp\ccgqUwp7.debug.temp.o
 .debug_str     0x00000000     0xe9a5 C:\Users\Linny\AppData\Local\Temp\cciGLqn3.debug.temp.o
 .debug_str     0x00000000     0x344f C:\Users\Linny\AppData\Local\Temp\ccmDmjiZ.debug.temp.o
 .debug_str     0x00000000     0x14bf C:\Users\Linny\AppData\Local\Temp\ccymOXbU.debug.temp.o
 .debug_str     0x00000000      0x52a C:\Users\Linny\AppData\Local\Temp\ccAWNcjP.debug.temp.o
 .debug_str     0x00000000     0x463a C:\Users\Linny\AppData\Local\Temp\cciudJlK.debug.temp.o
 .debug_str     0x00000000     0x2c23 C:\Users\Linny\AppData\Local\Temp\ccqaoNDA.debug.temp.o
 .debug_str     0x00000000     0x6465 C:\Users\Linny\AppData\Local\Temp\ccwgzCOv.debug.temp.o
 .debug_str     0x00000000      0x61c C:\Users\Linny\AppData\Local\Temp\ccmAJT8q.debug.temp.o
 .debug_str     0x00000000     0x3298 C:\Users\Linny\AppData\Local\Temp\cccUTatm.debug.temp.o
 .debug_str     0x00000000      0x60a C:\Users\Linny\AppData\Local\Temp\ccgDtmQg.debug.temp.o
 .debug_str     0x00000000      0x2fa C:\Users\Linny\AppData\Local\Temp\ccq9kxab.debug.temp.o
 .debug_str     0x00000000      0x340 C:\Users\Linny\AppData\Local\Temp\ccottiI5.debug.temp.o
 .debug_str     0x00000000      0x389 C:\Users\Linny\AppData\Local\Temp\ccANA3XJ.debug.temp.o
 .debug_str     0x00000000      0x3b7 C:\Users\Linny\AppData\Local\Temp\ccI0Q7NE.debug.temp.o
 .debug_str     0x00000000      0x5ba C:\Users\Linny\AppData\Local\Temp\ccoVkUyz.debug.temp.o
 .debug_str     0x00000000      0x365 C:\Users\Linny\AppData\Local\Temp\ccsAih3x.debug.temp.o
 .debug_str     0x00000000      0xaf5 C:\Users\Linny\AppData\Local\Temp\ccy6DpGt.debug.temp.o
 .debug_str     0x00000000    0xf5a69 bn_sprites_manager.bn_iwram.o
                               0xdaf3 (size before relaxing)
 .debug_str     0x000f5a69     0x1582 bn_hw_common.bn_noflto.o
 .debug_str     0x000f5a69      0x5fe bn_hw_game_pak.bn_ewram.o
 .debug_str     0x000f5a69     0x34ed bn_hw_gpio.bn_noflto.o
 .debug_str     0x000f5a69      0xd46 bn_hw_palettes.bn_iwram.o
 .debug_str     0x000f5a69      0x5f0 bn_hw_sprite_tiles.bn_iwram.o
 .debug_str     0x000f5a69      0x5c5 bn_hw_sram.bn_noflto.o
 .debug_str     0x000f5a69       0xb5 bn_hw_bg_blocks.o
 .debug_str     0x000f5a69       0xb0 bn_hw_core.o
 .debug_str     0x000f5a69       0xba bn_hw_hblank_effects.o
 .debug_str     0x000f5a69       0xb8 bn_hw_palettes_asm.o
 .debug_str     0x000f5a69       0xd5 clr_blend_fast.o
 .debug_str     0x000f5a69       0xc5 clr_fade_fast.o
 .debug_str     0x000f5a69      0x279 tonc_bios.o
 .debug_str     0x000f5a69       0xd5 tonc_memset.o
 .debug_str     0x000f5a69       0xc3 irq_handler.o
 .debug_str     0x000f5a69       0xc3 posprintf.o
 .debug_str     0x000f5a69       0xbb lmul.o
 .debug_str     0x000f5a69       0xbd memcpy.o
 .debug_str     0x000f5a69       0xbe memmove.o
 .debug_str     0x000f5a69       0xbd memset.o
 .debug_str     0x000f5a69       0xbe rmemcpy.o
 .debug_str     0x000f5a69       0xc1 sdiv32.o
 .debug_str     0x000f5a69       0xc1 sqrt32.o
 .debug_str     0x000f5a69       0xc1 udiv32.o
 .debug_str     0x000f5a69       0xc8 huffman.o
 .debug_str     0x000f5a69       0xc5 lz77.o
 .debug_str     0x000f5a69       0xcf running_length.o
 .debug_str     0x000f5a69       0xc3 mm_effect.o
 .debug_str     0x000f5a69       0xc1 mm_main.o
 .debug_str     0x000f5a69       0xc0 mm_mas.o
 .debug_str     0x000f5a69       0xc4 mm_mas_arm.o
 .debug_str     0x000f5a69       0xc9 mm_main_gba.o
 .debug_str     0x000f5a69       0xca mm_mixer_gba.o

.debug_loc      0x00000000   0x1156a2
 *(.debug_loc)
 .debug_loc     0x00000000    0x2c29b C:\Users\Linny\AppData\Local\Temp\cc3nsn9g.ltrans0.ltrans.o
 .debug_loc     0x0002c29b    0x1aa30 C:\Users\Linny\AppData\Local\Temp\cc3nsn9g.ltrans1.ltrans.o
 .debug_loc     0x00046ccb    0x23135 C:\Users\Linny\AppData\Local\Temp\cc3nsn9g.ltrans2.ltrans.o
 .debug_loc     0x00069e00    0x20d9e C:\Users\Linny\AppData\Local\Temp\cc3nsn9g.ltrans3.ltrans.o
 .debug_loc     0x0008ab9e    0x297ac C:\Users\Linny\AppData\Local\Temp\cc3nsn9g.ltrans4.ltrans.o
 .debug_loc     0x000b434a    0x201d8 C:\Users\Linny\AppData\Local\Temp\cc3nsn9g.ltrans5.ltrans.o
 .debug_loc     0x000d4522    0x2364b C:\Users\Linny\AppData\Local\Temp\cc3nsn9g.ltrans6.ltrans.o
 .debug_loc     0x000f7b6d    0x1c5bf C:\Users\Linny\AppData\Local\Temp\cc3nsn9g.ltrans7.ltrans.o
 .debug_loc     0x0011412c      0xbc1 bn_sprites_manager.bn_iwram.o
 .debug_loc     0x00114ced      0x309 bn_hw_common.bn_noflto.o
 .debug_loc     0x00114ff6      0x102 bn_hw_game_pak.bn_ewram.o
 .debug_loc     0x001150f8      0x371 bn_hw_palettes.bn_iwram.o
 .debug_loc     0x00115469      0x239 bn_hw_sprite_tiles.bn_iwram.o

.debug_macinfo
 *(.debug_macinfo)

.debug_weaknames
 *(.debug_weaknames)

.debug_funcnames
 *(.debug_funcnames)

.debug_typenames
 *(.debug_typenames)

.debug_varnames
 *(.debug_varnames)

.stack          0x00080000        0x0
                0x00080000                        _stack = .
 *(.stack)

.note.gnu.arm.ident
 *(.note.gnu.arm.ident)

.ARM.attributes
                0x00000000       0x2c
 *(.ARM.attributes)
 .ARM.attributes
                0x00000000       0x20 C:/devkitPro/devkitARM/bin/../lib/gcc/arm-none-eabi/14.2.0/../../../../arm-none-eabi/lib/thumb/gba_crt0.o
 .ARM.attributes
                0x00000020       0x1c C:/devkitPro/devkitARM/bin/../lib/gcc/arm-none-eabi/14.2.0/thumb/crti.o
 .ARM.attributes
                0x0000003c       0x2a C:/devkitPro/devkitARM/bin/../lib/gcc/arm-none-eabi/14.2.0/thumb/crtbegin.o
 .ARM.attributes
                0x00000066       0x1a _bn_audio_soundbank.bin.o
 .ARM.attributes
                0x00000080       0x1a big_font_bn_gfx.o
 .ARM.attributes
                0x0000009a       0x1a boss_intro_bn_gfx.o
 .ARM.attributes
                0x000000b4       0x1a brightness_bn_gfx.o
 .ARM.attributes
                0x000000ce       0x1a butano_background_bn_gfx.o
 .ARM.attributes
                0x000000e8       0x1a butano_big_silhouette_bn_gfx.o
 .ARM.attributes
                0x00000102       0x1a butano_big_sprite_bn_gfx.o
 .ARM.attributes
                0x0000011c       0x1a butano_fire_bn_gfx.o
 .ARM.attributes
                0x00000136       0x1a butano_flash_palette_bn_gfx.o
 .ARM.attributes
                0x00000150       0x1a butano_font_bn_gfx.o
 .ARM.attributes
                0x0000016a       0x1a butano_huge_bn_gfx.o
 .ARM.attributes
                0x00000184       0x1a clouds_bn_gfx.o
 .ARM.attributes
                0x0000019e       0x1a enemy_bullets_bn_gfx.o
 .ARM.attributes
                0x000001b8       0x1a enemy_explosion_bn_gfx.o
 .ARM.attributes
                0x000001d2       0x1a experience_bar_bn_gfx.o
 .ARM.attributes
                0x000001ec       0x1a experience_frame_back_bn_gfx.o
 .ARM.attributes
                0x00000206       0x1a experience_frame_front_bn_gfx.o
 .ARM.attributes
                0x00000220       0x1a fighter_font_bn_gfx.o
 .ARM.attributes
                0x0000023a       0x1a flash_palette_bn_gfx.o
 .ARM.attributes
                0x00000254       0x1a gem_bn_gfx.o
 .ARM.attributes
                0x0000026e       0x1a gigabat_bn_gfx.o
 .ARM.attributes
                0x00000288       0x1a gigabat_shadow_bn_gfx.o
 .ARM.attributes
                0x000002a2       0x1a hero_body_flying_bn_gfx.o
 .ARM.attributes
                0x000002bc       0x1a hero_body_walking_bn_gfx.o
 .ARM.attributes
                0x000002d6       0x1a hero_bomb_bn_gfx.o
 .ARM.attributes
                0x000002f0       0x1a hero_bomb_icon_bn_gfx.o
 .ARM.attributes
                0x0000030a       0x1a hero_bomb_mini_bn_gfx.o
 .ARM.attributes
                0x00000324       0x1a hero_bullets_bn_gfx.o
 .ARM.attributes
                0x0000033e       0x1a hero_death_bn_gfx.o
 .ARM.attributes
                0x00000358       0x1a hero_head_bn_gfx.o
 .ARM.attributes
                0x00000372       0x1a hero_shield_bn_gfx.o
 .ARM.attributes
                0x0000038c       0x1a hero_weapon_big_2_bn_gfx.o
 .ARM.attributes
                0x000003a6       0x1a hero_weapon_big_3_bn_gfx.o
 .ARM.attributes
                0x000003c0       0x1a hero_weapon_big_4_bn_gfx.o
 .ARM.attributes
                0x000003da       0x1a hero_weapon_big_5_bn_gfx.o
 .ARM.attributes
                0x000003f4       0x1a hero_weapon_big_6_bn_gfx.o
 .ARM.attributes
                0x0000040e       0x1a hero_weapon_big_7_bn_gfx.o
 .ARM.attributes
                0x00000428       0x1a hero_weapon_big_8_bn_gfx.o
 .ARM.attributes
                0x00000442       0x1a hero_weapon_big_9_bn_gfx.o
 .ARM.attributes
                0x0000045c       0x1a hero_weapons_bn_gfx.o
 .ARM.attributes
                0x00000476       0x1a mini_explosion_bn_gfx.o
 .ARM.attributes
                0x00000490       0x1a mini_explosion_2_bn_gfx.o
 .ARM.attributes
                0x000004aa       0x1a mountain_clouds_bn_gfx.o
 .ARM.attributes
                0x000004c4       0x1a object_messages_bn_gfx.o
 .ARM.attributes
                0x000004de       0x1a pause_bn_gfx.o
 .ARM.attributes
                0x000004f8       0x1a small_font_bn_gfx.o
 .ARM.attributes
                0x00000512       0x1a stage_1_bn_gfx.o
 .ARM.attributes
                0x0000052c       0x1a stage_1_animals_bn_gfx.o
 .ARM.attributes
                0x00000546       0x1a stage_1_characters_1_bn_gfx.o
 .ARM.attributes
                0x00000560       0x1a stage_1_characters_1_team_bn_gfx.o
 .ARM.attributes
                0x0000057a       0x1a stage_1_characters_2_bn_gfx.o
 .ARM.attributes
                0x00000594       0x1a stage_1_intro_bn_gfx.o
 .ARM.attributes
                0x000005ae       0x1a stage_1_intro_alt_bn_gfx.o
 .ARM.attributes
                0x000005c8       0x1a stage_1_monsters_1_bn_gfx.o
 .ARM.attributes
                0x000005e2       0x1a stage_1_monsters_2_bn_gfx.o
 .ARM.attributes
                0x000005fc       0x1a stage_2_bn_gfx.o
 .ARM.attributes
                0x00000616       0x1a stage_2_characters_1_bn_gfx.o
 .ARM.attributes
                0x00000630       0x1a stage_2_characters_2_bn_gfx.o
 .ARM.attributes
                0x0000064a       0x1a stage_2_intro_bn_gfx.o
 .ARM.attributes
                0x00000664       0x1a stage_2_intro_alt_bn_gfx.o
 .ARM.attributes
                0x0000067e       0x1a stage_2_monsters_1_bn_gfx.o
 .ARM.attributes
                0x00000698       0x1a stage_2_monsters_2_bn_gfx.o
 .ARM.attributes
                0x000006b2       0x1a stage_2_robot_bn_gfx.o
 .ARM.attributes
                0x000006cc       0x1a stage_3_bn_gfx.o
 .ARM.attributes
                0x000006e6       0x1a stage_3_blonde_bn_gfx.o
 .ARM.attributes
                0x00000700       0x1a stage_3_characters_1_bn_gfx.o
 .ARM.attributes
                0x0000071a       0x1a stage_3_characters_2_bn_gfx.o
 .ARM.attributes
                0x00000734       0x1a stage_3_dragon_man_bn_gfx.o
 .ARM.attributes
                0x0000074e       0x1a stage_3_intro_bn_gfx.o
 .ARM.attributes
                0x00000768       0x1a stage_3_intro_alt_bn_gfx.o
 .ARM.attributes
                0x00000782       0x1a stage_3_monsters_1_bn_gfx.o
 .ARM.attributes
                0x0000079c       0x1a stage_3_monsters_2_bn_gfx.o
 .ARM.attributes
                0x000007b6       0x1a stage_4_bn_gfx.o
 .ARM.attributes
                0x000007d0       0x1a stage_4_brain_bn_gfx.o
 .ARM.attributes
                0x000007ea       0x1a stage_4_enemies_1_bn_gfx.o
 .ARM.attributes
                0x00000804       0x1a stage_4_enemies_2_bn_gfx.o
 .ARM.attributes
                0x0000081e       0x1a stage_4_enemies_3_1_bn_gfx.o
 .ARM.attributes
                0x00000838       0x1a stage_4_enemies_3_2_bn_gfx.o
 .ARM.attributes
                0x00000852       0x1a stage_4_enemies_4_bn_gfx.o
 .ARM.attributes
                0x0000086c       0x1a stage_4_intro_bn_gfx.o
 .ARM.attributes
                0x00000886       0x1a stage_4_intro_alt_bn_gfx.o
 .ARM.attributes
                0x000008a0       0x1a stage_4_meteors_big_bn_gfx.o
 .ARM.attributes
                0x000008ba       0x1a stage_4_meteors_small_bn_gfx.o
 .ARM.attributes
                0x000008d4       0x1a stage_4_octopus_bn_gfx.o
 .ARM.attributes
                0x000008ee       0x1a stars_bn_gfx.o
 .ARM.attributes
                0x00000908       0x1a tank_base_bn_gfx.o
 .ARM.attributes
                0x00000922       0x1a tank_cannon_bn_gfx.o
 .ARM.attributes
                0x0000093c       0x1a tank_extras_bn_gfx.o
 .ARM.attributes
                0x00000956       0x1a tank_jelly_bn_gfx.o
 .ARM.attributes
                0x00000970       0x1a wizard_bn_gfx.o
 .ARM.attributes
                0x0000098a       0x1a wizard_aura_bn_gfx.o
 .ARM.attributes
                0x000009a4       0x28 C:\Users\Linny\AppData\Local\Temp\cc3nsn9g.ltrans0.ltrans.o
 .ARM.attributes
                0x000009cc       0x28 C:\Users\Linny\AppData\Local\Temp\cc3nsn9g.ltrans1.ltrans.o
 .ARM.attributes
                0x000009f4       0x28 C:\Users\Linny\AppData\Local\Temp\cc3nsn9g.ltrans2.ltrans.o
 .ARM.attributes
                0x00000a1c       0x28 C:\Users\Linny\AppData\Local\Temp\cc3nsn9g.ltrans3.ltrans.o
 .ARM.attributes
                0x00000a44       0x28 C:\Users\Linny\AppData\Local\Temp\cc3nsn9g.ltrans4.ltrans.o
 .ARM.attributes
                0x00000a6c       0x28 C:\Users\Linny\AppData\Local\Temp\cc3nsn9g.ltrans5.ltrans.o
 .ARM.attributes
                0x00000a94       0x28 C:\Users\Linny\AppData\Local\Temp\cc3nsn9g.ltrans6.ltrans.o
 .ARM.attributes
                0x00000abc       0x28 C:\Users\Linny\AppData\Local\Temp\cc3nsn9g.ltrans7.ltrans.o
 .ARM.attributes
                0x00000ae4       0x26 bn_sprites_manager.bn_iwram.o
 .ARM.attributes
                0x00000b0a       0x26 bn_hw_common.bn_noflto.o
 .ARM.attributes
                0x00000b30       0x26 bn_hw_game_pak.bn_ewram.o
 .ARM.attributes
                0x00000b56       0x26 bn_hw_gpio.bn_noflto.o
 .ARM.attributes
                0x00000b7c       0x26 bn_hw_palettes.bn_iwram.o
 .ARM.attributes
                0x00000ba2       0x26 bn_hw_sprite_tiles.bn_iwram.o
 .ARM.attributes
                0x00000bc8       0x26 bn_hw_sram.bn_ewram.o
 .ARM.attributes
                0x00000bee       0x26 bn_hw_sram.bn_noflto.o
 .ARM.attributes
                0x00000c14       0x1a bn_hw_bg_blocks.o
 .ARM.attributes
                0x00000c2e       0x1a bn_hw_core.o
 .ARM.attributes
                0x00000c48       0x1a bn_hw_hblank_effects.o
 .ARM.attributes
                0x00000c62       0x1a bn_hw_palettes_asm.o
 .ARM.attributes
                0x00000c7c       0x1a clr_blend_fast.o
 .ARM.attributes
                0x00000c96       0x1a clr_fade_fast.o
 .ARM.attributes
                0x00000cb0       0x1a tonc_bios.o
 .ARM.attributes
                0x00000cca       0x1a tonc_memset.o
 .ARM.attributes
                0x00000ce4       0x1a tonc_nocash.o
 .ARM.attributes
                0x00000cfe       0x1a verdana9.o
 .ARM.attributes
                0x00000d18       0x1a irq_handler.o
 .ARM.attributes
                0x00000d32       0x1a posprintf.o
 .ARM.attributes
                0x00000d4c       0x1a atan2.o
 .ARM.attributes
                0x00000d66       0x1a coroutine_asm.o
 .ARM.attributes
                0x00000d80       0x1a fiq_memcpy.o
 .ARM.attributes
                0x00000d9a       0x1a lmul.o
 .ARM.attributes
                0x00000db4       0x1a memcpy.o
 .ARM.attributes
                0x00000dce       0x1a memmove.o
 .ARM.attributes
                0x00000de8       0x1a memset.o
 .ARM.attributes
                0x00000e02       0x1a rmemcpy.o
 .ARM.attributes
                0x00000e1c       0x1a clz.o
 .ARM.attributes
                0x00000e36       0x1a sdiv32.o
 .ARM.attributes
                0x00000e50       0x1a sqrt32.o
 .ARM.attributes
                0x00000e6a       0x1a udiv32.o
 .ARM.attributes
                0x00000e84       0x1a huffman.o
 .ARM.attributes
                0x00000e9e       0x1a lz77.o
 .ARM.attributes
                0x00000eb8       0x1a running_length.o
 .ARM.attributes
                0x00000ed2       0x1a mm_effect.o
 .ARM.attributes
                0x00000eec       0x1a mm_main.o
 .ARM.attributes
                0x00000f06       0x1a mm_mas.o
 .ARM.attributes
                0x00000f20       0x1a mm_mas_arm.o
 .ARM.attributes
                0x00000f3a       0x1a mm_init_default.o
 .ARM.attributes
                0x00000f54       0x1a mm_main_gba.o
 .ARM.attributes
                0x00000f6e       0x1a mm_mixer_gba.o
 .ARM.attributes
                0x00000f88       0x1c C:/devkitPro/devkitARM/bin/../lib/gcc/arm-none-eabi/14.2.0/thumb\libgcc.a(_call_via_rX.o)
 .ARM.attributes
                0x00000fa4       0x1c C:/devkitPro/devkitARM/bin/../lib/gcc/arm-none-eabi/14.2.0/thumb\libgcc.a(_sync_none.o)
 .ARM.attributes
                0x00000fc0       0x2a C:/devkitPro/devkitARM/bin/../lib/gcc/arm-none-eabi/14.2.0/thumb/crtend.o
 .ARM.attributes
                0x00000fea       0x1c C:/devkitPro/devkitARM/bin/../lib/gcc/arm-none-eabi/14.2.0/thumb/crtn.o

/DISCARD/
 *(.note.GNU-stack)
LOAD C:/devkitPro/devkitARM/bin/../lib/gcc/arm-none-eabi/14.2.0/../../../../arm-none-eabi/lib/thumb/gba_crt0.o
LOAD C:/devkitPro/devkitARM/bin/../lib/gcc/arm-none-eabi/14.2.0/thumb/crti.o
LOAD C:/devkitPro/devkitARM/bin/../lib/gcc/arm-none-eabi/14.2.0/thumb/crtbegin.o
LOAD _bn_audio_soundbank.bin.o
LOAD big_font_bn_gfx.o
LOAD boss_intro_bn_gfx.o
LOAD brightness_bn_gfx.o
LOAD butano_background_bn_gfx.o
LOAD butano_big_silhouette_bn_gfx.o
LOAD butano_big_sprite_bn_gfx.o
LOAD butano_fire_bn_gfx.o
LOAD butano_flash_palette_bn_gfx.o
LOAD butano_font_bn_gfx.o
LOAD butano_huge_bn_gfx.o
LOAD clouds_bn_gfx.o
LOAD enemy_bullets_bn_gfx.o
LOAD enemy_explosion_bn_gfx.o
LOAD experience_bar_bn_gfx.o
LOAD experience_frame_back_bn_gfx.o
LOAD experience_frame_front_bn_gfx.o
LOAD fighter_font_bn_gfx.o
LOAD flash_palette_bn_gfx.o
LOAD gem_bn_gfx.o
LOAD gigabat_bn_gfx.o
LOAD gigabat_shadow_bn_gfx.o
LOAD hero_body_flying_bn_gfx.o
LOAD hero_body_walking_bn_gfx.o
LOAD hero_bomb_bn_gfx.o
LOAD hero_bomb_icon_bn_gfx.o
LOAD hero_bomb_mini_bn_gfx.o
LOAD hero_bullets_bn_gfx.o
LOAD hero_death_bn_gfx.o
LOAD hero_head_bn_gfx.o
LOAD hero_shield_bn_gfx.o
LOAD hero_weapon_big_2_bn_gfx.o
LOAD hero_weapon_big_3_bn_gfx.o
LOAD hero_weapon_big_4_bn_gfx.o
LOAD hero_weapon_big_5_bn_gfx.o
LOAD hero_weapon_big_6_bn_gfx.o
LOAD hero_weapon_big_7_bn_gfx.o
LOAD hero_weapon_big_8_bn_gfx.o
LOAD hero_weapon_big_9_bn_gfx.o
LOAD hero_weapons_bn_gfx.o
LOAD mini_explosion_bn_gfx.o
LOAD mini_explosion_2_bn_gfx.o
LOAD mountain_clouds_bn_gfx.o
LOAD object_messages_bn_gfx.o
LOAD pause_bn_gfx.o
LOAD small_font_bn_gfx.o
LOAD stage_1_bn_gfx.o
LOAD stage_1_animals_bn_gfx.o
LOAD stage_1_characters_1_bn_gfx.o
LOAD stage_1_characters_1_team_bn_gfx.o
LOAD stage_1_characters_2_bn_gfx.o
LOAD stage_1_intro_bn_gfx.o
LOAD stage_1_intro_alt_bn_gfx.o
LOAD stage_1_monsters_1_bn_gfx.o
LOAD stage_1_monsters_2_bn_gfx.o
LOAD stage_2_bn_gfx.o
LOAD stage_2_characters_1_bn_gfx.o
LOAD stage_2_characters_2_bn_gfx.o
LOAD stage_2_intro_bn_gfx.o
LOAD stage_2_intro_alt_bn_gfx.o
LOAD stage_2_monsters_1_bn_gfx.o
LOAD stage_2_monsters_2_bn_gfx.o
LOAD stage_2_robot_bn_gfx.o
LOAD stage_3_bn_gfx.o
LOAD stage_3_blonde_bn_gfx.o
LOAD stage_3_characters_1_bn_gfx.o
LOAD stage_3_characters_2_bn_gfx.o
LOAD stage_3_dragon_man_bn_gfx.o
LOAD stage_3_intro_bn_gfx.o
LOAD stage_3_intro_alt_bn_gfx.o
LOAD stage_3_monsters_1_bn_gfx.o
LOAD stage_3_monsters_2_bn_gfx.o
LOAD stage_4_bn_gfx.o
LOAD stage_4_brain_bn_gfx.o
LOAD stage_4_enemies_1_bn_gfx.o
LOAD stage_4_enemies_2_bn_gfx.o
LOAD stage_4_enemies_3_1_bn_gfx.o
LOAD stage_4_enemies_3_2_bn_gfx.o
LOAD stage_4_enemies_4_bn_gfx.o
LOAD stage_4_intro_bn_gfx.o
LOAD stage_4_intro_alt_bn_gfx.o
LOAD stage_4_meteors_big_bn_gfx.o
LOAD stage_4_meteors_small_bn_gfx.o
LOAD stage_4_octopus_bn_gfx.o
LOAD stars_bn_gfx.o
LOAD tank_base_bn_gfx.o
LOAD tank_cannon_bn_gfx.o
LOAD tank_extras_bn_gfx.o
LOAD tank_jelly_bn_gfx.o
LOAD wizard_bn_gfx.o
LOAD wizard_aura_bn_gfx.o
LOAD bf_butano_background.o
LOAD C:\Users\Linny\AppData\Local\Temp\cc3nsn9g.ltrans0.ltrans.o
LOAD C:\Users\Linny\AppData\Local\Temp\cc3nsn9g.ltrans1.ltrans.o
LOAD C:\Users\Linny\AppData\Local\Temp\cc3nsn9g.ltrans2.ltrans.o
LOAD C:\Users\Linny\AppData\Local\Temp\cc3nsn9g.ltrans3.ltrans.o
LOAD C:\Users\Linny\AppData\Local\Temp\cc3nsn9g.ltrans4.ltrans.o
LOAD C:\Users\Linny\AppData\Local\Temp\cc3nsn9g.ltrans5.ltrans.o
LOAD C:\Users\Linny\AppData\Local\Temp\cc3nsn9g.ltrans6.ltrans.o
LOAD C:\Users\Linny\AppData\Local\Temp\cc3nsn9g.ltrans7.ltrans.o
LOAD C:\Users\Linny\AppData\Local\Temp\cc0QidYf.debug.temp.o
LOAD C:\Users\Linny\AppData\Local\Temp\ccqHmLQ6.debug.temp.o
LOAD C:\Users\Linny\AppData\Local\Temp\ccAFu9EX.debug.temp.o
LOAD C:\Users\Linny\AppData\Local\Temp\ccyrT7GO.debug.temp.o
LOAD C:\Users\Linny\AppData\Local\Temp\cc803ODF.debug.temp.o
LOAD C:\Users\Linny\AppData\Local\Temp\ccyrM6Nw.debug.temp.o
LOAD C:\Users\Linny\AppData\Local\Temp\ccAJmFTn.debug.temp.o
LOAD C:\Users\Linny\AppData\Local\Temp\ccCbYndf.debug.temp.o
LOAD C:\Users\Linny\AppData\Local\Temp\ccIfMjv5.debug.temp.o
LOAD C:\Users\Linny\AppData\Local\Temp\ccMULdKV.debug.temp.o
LOAD C:\Users\Linny\AppData\Local\Temp\ccA9fyUL.debug.temp.o
LOAD C:\Users\Linny\AppData\Local\Temp\cciTpTiC.debug.temp.o
LOAD C:\Users\Linny\AppData\Local\Temp\ccCAm7Ps.debug.temp.o
LOAD C:\Users\Linny\AppData\Local\Temp\ccqpvbij.debug.temp.o
LOAD C:\Users\Linny\AppData\Local\Temp\cc2voHX9.debug.temp.o
LOAD C:\Users\Linny\AppData\Local\Temp\ccsikEy0.debug.temp.o
LOAD C:\Users\Linny\AppData\Local\Temp\cccb4VcQ.debug.temp.o
LOAD C:\Users\Linny\AppData\Local\Temp\ccQEmN1F.debug.temp.o
LOAD C:\Users\Linny\AppData\Local\Temp\cccFS4Lv.debug.temp.o
LOAD C:\Users\Linny\AppData\Local\Temp\cco0pOJl.debug.temp.o
LOAD C:\Users\Linny\AppData\Local\Temp\ccq8mxDb.debug.temp.o
LOAD C:\Users\Linny\AppData\Local\Temp\ccW107F1.debug.temp.o
LOAD C:\Users\Linny\AppData\Local\Temp\ccGQ8ArV.debug.temp.o
LOAD C:\Users\Linny\AppData\Local\Temp\ccafLu8O.debug.temp.o
LOAD C:\Users\Linny\AppData\Local\Temp\ccy82o3I.debug.temp.o
LOAD C:\Users\Linny\AppData\Local\Temp\ccsQib7C.debug.temp.o
LOAD C:\Users\Linny\AppData\Local\Temp\ccsRm57w.debug.temp.o
LOAD C:\Users\Linny\AppData\Local\Temp\ccidsrmr.debug.temp.o
LOAD C:\Users\Linny\AppData\Local\Temp\ccO2tdwl.debug.temp.o
LOAD C:\Users\Linny\AppData\Local\Temp\ccQgYlJe.debug.temp.o
LOAD C:\Users\Linny\AppData\Local\Temp\ccaUoM47.debug.temp.o
LOAD C:\Users\Linny\AppData\Local\Temp\ccc42Cl1.debug.temp.o
LOAD C:\Users\Linny\AppData\Local\Temp\cc4yIVPU.debug.temp.o
LOAD C:\Users\Linny\AppData\Local\Temp\ccA8xFtO.debug.temp.o
LOAD C:\Users\Linny\AppData\Local\Temp\ccMbkP2H.debug.temp.o
LOAD C:\Users\Linny\AppData\Local\Temp\ccE07sGA.debug.temp.o
LOAD C:\Users\Linny\AppData\Local\Temp\ccgpqxft.debug.temp.o
LOAD C:\Users\Linny\AppData\Local\Temp\ccMioC2l.debug.temp.o
LOAD C:\Users\Linny\AppData\Local\Temp\cc0Iz7Ke.debug.temp.o
LOAD C:\Users\Linny\AppData\Local\Temp\cc2qv4G7.debug.temp.o
LOAD C:\Users\Linny\AppData\Local\Temp\ccsHckL0.debug.temp.o
LOAD C:\Users\Linny\AppData\Local\Temp\ccAu7ZKT.debug.temp.o
LOAD C:\Users\Linny\AppData\Local\Temp\ccaAW1NL.debug.temp.o
LOAD C:\Users\Linny\AppData\Local\Temp\ccscZtMD.debug.temp.o
LOAD C:\Users\Linny\AppData\Local\Temp\ccMvLUHv.debug.temp.o
LOAD C:\Users\Linny\AppData\Local\Temp\ccYImWQn.debug.temp.o
LOAD C:\Users\Linny\AppData\Local\Temp\ccO07o9f.debug.temp.o
LOAD C:\Users\Linny\AppData\Local\Temp\cckgj9m8.debug.temp.o
LOAD C:\Users\Linny\AppData\Local\Temp\ccGm2tO0.debug.temp.o
LOAD C:\Users\Linny\AppData\Local\Temp\ccAaZwaT.debug.temp.o
LOAD C:\Users\Linny\AppData\Local\Temp\ccGW10bP.debug.temp.o
LOAD C:\Users\Linny\AppData\Local\Temp\ccMI4udL.debug.temp.o
LOAD C:\Users\Linny\AppData\Local\Temp\ccIlFzsH.debug.temp.o
LOAD C:\Users\Linny\AppData\Local\Temp\ccwwxdSD.debug.temp.o
LOAD C:\Users\Linny\AppData\Local\Temp\cc2H68cA.debug.temp.o
LOAD C:\Users\Linny\AppData\Local\Temp\ccmHWELw.debug.temp.o
LOAD C:\Users\Linny\AppData\Local\Temp\ccwXF1ft.debug.temp.o
LOAD C:\Users\Linny\AppData\Local\Temp\ccYImjNo.debug.temp.o
LOAD C:\Users\Linny\AppData\Local\Temp\cc0eyjfk.debug.temp.o
LOAD C:\Users\Linny\AppData\Local\Temp\ccyzHbQf.debug.temp.o
LOAD C:\Users\Linny\AppData\Local\Temp\cc40AdFb.debug.temp.o
LOAD C:\Users\Linny\AppData\Local\Temp\ccgqUwp7.debug.temp.o
LOAD C:\Users\Linny\AppData\Local\Temp\cciGLqn3.debug.temp.o
LOAD C:\Users\Linny\AppData\Local\Temp\ccmDmjiZ.debug.temp.o
LOAD C:\Users\Linny\AppData\Local\Temp\ccymOXbU.debug.temp.o
LOAD C:\Users\Linny\AppData\Local\Temp\ccAWNcjP.debug.temp.o
LOAD C:\Users\Linny\AppData\Local\Temp\cciudJlK.debug.temp.o
LOAD C:\Users\Linny\AppData\Local\Temp\cc01CfoF.debug.temp.o
LOAD C:\Users\Linny\AppData\Local\Temp\ccqaoNDA.debug.temp.o
LOAD C:\Users\Linny\AppData\Local\Temp\ccwgzCOv.debug.temp.o
LOAD C:\Users\Linny\AppData\Local\Temp\ccmAJT8q.debug.temp.o
LOAD C:\Users\Linny\AppData\Local\Temp\cccUTatm.debug.temp.o
LOAD C:\Users\Linny\AppData\Local\Temp\ccgDtmQg.debug.temp.o
LOAD C:\Users\Linny\AppData\Local\Temp\ccq9kxab.debug.temp.o
LOAD C:\Users\Linny\AppData\Local\Temp\ccottiI5.debug.temp.o
LOAD C:\Users\Linny\AppData\Local\Temp\ccmNB3f0.debug.temp.o
LOAD C:\Users\Linny\AppData\Local\Temp\cc0495IU.debug.temp.o
LOAD C:\Users\Linny\AppData\Local\Temp\ccirSzlP.debug.temp.o
LOAD C:\Users\Linny\AppData\Local\Temp\ccANA3XJ.debug.temp.o
LOAD C:\Users\Linny\AppData\Local\Temp\ccI0Q7NE.debug.temp.o
LOAD C:\Users\Linny\AppData\Local\Temp\ccoVkUyz.debug.temp.o
LOAD C:\Users\Linny\AppData\Local\Temp\ccsAih3x.debug.temp.o
LOAD C:\Users\Linny\AppData\Local\Temp\ccmw9utw.debug.temp.o
LOAD C:\Users\Linny\AppData\Local\Temp\cc6iyj7u.debug.temp.o
LOAD C:\Users\Linny\AppData\Local\Temp\ccy6DpGt.debug.temp.o
LOAD bf_circle_generator.o
LOAD bf_credits.o
LOAD bf_ending.o
LOAD bf_game.o
LOAD bf_game_background.o
LOAD bf_game_boss.o
LOAD bf_game_boss_intro.o
LOAD bf_game_butano_boss.o
LOAD bf_game_enemies.o
LOAD bf_game_enemies_grid.o
LOAD bf_game_enemy.o
LOAD bf_game_enemy_bullets.o
LOAD bf_game_explosion.o
LOAD bf_game_gem.o
LOAD bf_game_gigabat_boss.o
LOAD bf_game_hero.o
LOAD bf_game_hero_bomb.o
LOAD bf_game_hero_bullet_level.o
LOAD bf_game_hero_bullets.o
LOAD bf_game_intro.o
LOAD bf_game_object.o
LOAD bf_game_object_message.o
LOAD bf_game_objects.o
LOAD bf_game_pause.o
LOAD bf_game_scoreboard.o
LOAD bf_game_stage_1.o
LOAD bf_game_stage_2.o
LOAD bf_game_stage_3.o
LOAD bf_game_stage_4.o
LOAD bf_game_tank_boss.o
LOAD bf_game_wizard_boss.o
LOAD bf_how_to_play.o
LOAD bf_intro.o
LOAD bf_keypad_shortcuts.o
LOAD bf_stats.o
LOAD bf_status.o
LOAD bf_title.o
LOAD main.o
LOAD bn_affine_bg_animate_actions.o
LOAD bn_audio_manager.o
LOAD bn_best_fit_allocator.o
LOAD bn_bg_blocks_manager.o
LOAD bn_bgs_manager.o
LOAD bn_cameras_manager.o
LOAD bn_core.o
LOAD bn_display_manager.o
LOAD bn_gpio_manager.o
LOAD bn_hblank_effects_manager.o
LOAD bn_hdma_manager.o
LOAD bn_keypad_manager.o
LOAD bn_link_manager.o
LOAD bn_memory_manager.o
LOAD bn_palettes_manager.o
LOAD bn_profiler.o
LOAD bn_regular_bg_animate_actions.o
LOAD bn_sprite_affine_mats_manager.o
LOAD bn_sprite_animate_actions.o
LOAD bn_sprite_text_generator.o
LOAD bn_sprite_tiles_manager.o
LOAD bn_sprites_manager.bn_iwram.o
LOAD bn_sprites_manager.o
LOAD bn_sstream.o
LOAD bn_translation_unit.o
LOAD bn_hw_audio.o
LOAD bn_hw_common.bn_noflto.o
LOAD bn_hw_cstdlib.o
LOAD bn_hw_cstring.o
LOAD bn_hw_game_pak.bn_ewram.o
LOAD bn_hw_gpio.bn_noflto.o
LOAD bn_hw_link.o
LOAD bn_hw_memory.o
LOAD bn_hw_palettes.bn_iwram.o
LOAD bn_hw_palettes.o
LOAD bn_hw_show.o
LOAD bn_hw_sprite_tiles.bn_iwram.o
LOAD bn_hw_sram.bn_ewram.o
LOAD bn_hw_sram.bn_noflto.o
LOAD bn_hw_system_font.o
LOAD bn_hw_text.o
LOAD vgm.o
LOAD tonc_color.o
LOAD tonc_sbmp16.o
LOAD tonc_schr4c.o
LOAD tonc_schr4r.o
LOAD tonc_surface.o
LOAD bmp16_drawg_b1cs.o
LOAD tte_init_bmp.o
LOAD tte_main.o
LOAD interrupts_gba.o
LOAD coroutine.o
LOAD rtc.o
LOAD gbt_player.o
LOAD bn_hw_bg_blocks.o
LOAD bn_hw_core.o
LOAD bn_hw_hblank_effects.o
LOAD bn_hw_palettes_asm.o
LOAD clr_blend_fast.o
LOAD clr_fade_fast.o
LOAD tonc_bios.o
LOAD tonc_memset.o
LOAD tonc_nocash.o
LOAD verdana9.o
LOAD irq_handler.o
LOAD posprintf.o
LOAD atan2.o
LOAD coroutine_asm.o
LOAD fiq_memcpy.o
LOAD lmul.o
LOAD memcpy.o
LOAD memmove.o
LOAD memset.o
LOAD rmemcpy.o
LOAD clz.o
LOAD sdiv32.o
LOAD sqrt32.o
LOAD udiv32.o
LOAD huffman.o
LOAD lz77.o
LOAD running_length.o
LOAD mm_effect.o
LOAD mm_main.o
LOAD mm_mas.o
LOAD mm_mas_arm.o
LOAD mm_init_default.o
LOAD mm_main_gba.o
LOAD mm_mixer_gba.o
LOAD C:/devkitPro/devkitARM/bin/../lib/gcc/arm-none-eabi/14.2.0/thumb\libgcc.a
LOAD C:/devkitPro/devkitARM/bin/../lib/gcc/arm-none-eabi/14.2.0/thumb/crtend.o
LOAD C:/devkitPro/devkitARM/bin/../lib/gcc/arm-none-eabi/14.2.0/thumb/crtn.o
OUTPUT(C:/Users/Linny/Documents/GitHub/CSC3210/butano-18.2.1/games/butano-fighter/butano-fighter.elf elf32-littlearm)
LOAD linker stubs

.debug_ranges   0x00000000    0x4b360
 .debug_ranges  0x00000000     0xbe08 C:\Users\Linny\AppData\Local\Temp\cc3nsn9g.ltrans0.ltrans.o
 .debug_ranges  0x0000be08     0x6ce8 C:\Users\Linny\AppData\Local\Temp\cc3nsn9g.ltrans1.ltrans.o
 .debug_ranges  0x00012af0     0x9328 C:\Users\Linny\AppData\Local\Temp\cc3nsn9g.ltrans2.ltrans.o
 .debug_ranges  0x0001be18     0x85a8 C:\Users\Linny\AppData\Local\Temp\cc3nsn9g.ltrans3.ltrans.o
 .debug_ranges  0x000243c0     0xa7b8 C:\Users\Linny\AppData\Local\Temp\cc3nsn9g.ltrans4.ltrans.o
 .debug_ranges  0x0002eb78     0x8ac0 C:\Users\Linny\AppData\Local\Temp\cc3nsn9g.ltrans5.ltrans.o
 .debug_ranges  0x00037638     0x9808 C:\Users\Linny\AppData\Local\Temp\cc3nsn9g.ltrans6.ltrans.o
 .debug_ranges  0x00040e40     0x9b28 C:\Users\Linny\AppData\Local\Temp\cc3nsn9g.ltrans7.ltrans.o
 .debug_ranges  0x0004a968      0x490 bn_sprites_manager.bn_iwram.o
 .debug_ranges  0x0004adf8       0x98 bn_hw_common.bn_noflto.o
 .debug_ranges  0x0004ae90       0x48 bn_hw_game_pak.bn_ewram.o
 .debug_ranges  0x0004aed8       0x10 bn_hw_gpio.bn_noflto.o
 .debug_ranges  0x0004aee8      0x148 bn_hw_palettes.bn_iwram.o
 .debug_ranges  0x0004b030       0xa0 bn_hw_sprite_tiles.bn_iwram.o
 .debug_ranges  0x0004b0d0       0x10 bn_hw_sram.bn_noflto.o
 .debug_ranges  0x0004b0e0      0x128 tonc_bios.o
 .debug_ranges  0x0004b208       0x20 tonc_memset.o
 .debug_ranges  0x0004b228       0x30 lmul.o
 .debug_ranges  0x0004b258       0x28 memcpy.o
 .debug_ranges  0x0004b280       0x30 memmove.o
 .debug_ranges  0x0004b2b0       0x30 memset.o
 .debug_ranges  0x0004b2e0       0x20 rmemcpy.o
 .debug_ranges  0x0004b300       0x20 mm_mas.o
 .debug_ranges  0x0004b320       0x20 mm_main_gba.o
 .debug_ranges  0x0004b340       0x20 mm_mixer_gba.o
